
LN2 Controller.elf:     file format elf32-avr

Sections:
Idx Name          Size      VMA       LMA       File off  Algn
  0 .data         00000000  00802800  00802800  00001b6c  2**0
                  CONTENTS, ALLOC, LOAD, DATA
  1 .text         00001a4e  00000000  00000000  00000094  2**1
                  CONTENTS, ALLOC, LOAD, READONLY, CODE
  2 .rodata       0000008a  00005a4e  00001a4e  00001ae2  2**0
                  CONTENTS, ALLOC, LOAD, READONLY, DATA
  3 .bss          000000ee  00802800  00802800  00001b6c  2**0
                  ALLOC
  4 .comment      0000005c  00000000  00000000  00001b6c  2**0
                  CONTENTS, READONLY
  5 .note.gnu.avr.deviceinfo 00000040  00000000  00000000  00001bc8  2**2
                  CONTENTS, READONLY
  6 .debug_aranges 000001c0  00000000  00000000  00001c08  2**3
                  CONTENTS, READONLY, DEBUGGING
  7 .debug_info   0000486a  00000000  00000000  00001dc8  2**0
                  CONTENTS, READONLY, DEBUGGING
  8 .debug_abbrev 000026c9  00000000  00000000  00006632  2**0
                  CONTENTS, READONLY, DEBUGGING
  9 .debug_line   000014e5  00000000  00000000  00008cfb  2**0
                  CONTENTS, READONLY, DEBUGGING
 10 .debug_frame  000003e4  00000000  00000000  0000a1e0  2**2
                  CONTENTS, READONLY, DEBUGGING
 11 .debug_str    00001c3d  00000000  00000000  0000a5c4  2**0
                  CONTENTS, READONLY, DEBUGGING
 12 .debug_loc    00000c3e  00000000  00000000  0000c201  2**0
                  CONTENTS, READONLY, DEBUGGING
 13 .debug_ranges 00000110  00000000  00000000  0000ce3f  2**0
                  CONTENTS, READONLY, DEBUGGING

Disassembly of section .text:

00000000 <__vectors>:
       0:	0c 94 57 00 	jmp	0xae	; 0xae <__ctors_end>
       4:	0c 94 69 00 	jmp	0xd2	; 0xd2 <__bad_interrupt>
       8:	0c 94 69 00 	jmp	0xd2	; 0xd2 <__bad_interrupt>
       c:	0c 94 e8 07 	jmp	0xfd0	; 0xfd0 <__vector_3>
      10:	0c 94 69 00 	jmp	0xd2	; 0xd2 <__bad_interrupt>
      14:	0c 94 69 00 	jmp	0xd2	; 0xd2 <__bad_interrupt>
      18:	0c 94 69 00 	jmp	0xd2	; 0xd2 <__bad_interrupt>
      1c:	0c 94 69 00 	jmp	0xd2	; 0xd2 <__bad_interrupt>
      20:	0c 94 69 00 	jmp	0xd2	; 0xd2 <__bad_interrupt>
      24:	0c 94 69 00 	jmp	0xd2	; 0xd2 <__bad_interrupt>
      28:	0c 94 69 00 	jmp	0xd2	; 0xd2 <__bad_interrupt>
      2c:	0c 94 69 00 	jmp	0xd2	; 0xd2 <__bad_interrupt>
      30:	0c 94 69 00 	jmp	0xd2	; 0xd2 <__bad_interrupt>
      34:	0c 94 69 00 	jmp	0xd2	; 0xd2 <__bad_interrupt>
      38:	0c 94 69 00 	jmp	0xd2	; 0xd2 <__bad_interrupt>
      3c:	0c 94 69 00 	jmp	0xd2	; 0xd2 <__bad_interrupt>
      40:	0c 94 69 00 	jmp	0xd2	; 0xd2 <__bad_interrupt>
      44:	0c 94 a1 03 	jmp	0x742	; 0x742 <__vector_17>
      48:	0c 94 d4 03 	jmp	0x7a8	; 0x7a8 <__vector_18>
      4c:	0c 94 69 00 	jmp	0xd2	; 0xd2 <__bad_interrupt>
      50:	0c 94 69 00 	jmp	0xd2	; 0xd2 <__bad_interrupt>
      54:	0c 94 69 00 	jmp	0xd2	; 0xd2 <__bad_interrupt>
      58:	0c 94 69 00 	jmp	0xd2	; 0xd2 <__bad_interrupt>
      5c:	0c 94 69 00 	jmp	0xd2	; 0xd2 <__bad_interrupt>
      60:	0c 94 21 01 	jmp	0x242	; 0x242 <__vector_24>
      64:	0c 94 c3 00 	jmp	0x186	; 0x186 <__vector_25>
      68:	0c 94 69 00 	jmp	0xd2	; 0xd2 <__bad_interrupt>
      6c:	0c 94 69 00 	jmp	0xd2	; 0xd2 <__bad_interrupt>
      70:	0c 94 69 00 	jmp	0xd2	; 0xd2 <__bad_interrupt>
      74:	0c 94 54 01 	jmp	0x2a8	; 0x2a8 <__vector_29>
      78:	0c 94 69 00 	jmp	0xd2	; 0xd2 <__bad_interrupt>
      7c:	0c 94 69 00 	jmp	0xd2	; 0xd2 <__bad_interrupt>
      80:	0c 94 69 00 	jmp	0xd2	; 0xd2 <__bad_interrupt>
      84:	0c 94 69 00 	jmp	0xd2	; 0xd2 <__bad_interrupt>
      88:	0c 94 ed 00 	jmp	0x1da	; 0x1da <__vector_34>
      8c:	0c 94 9a 08 	jmp	0x1134	; 0x1134 <__vector_35>
      90:	0c 94 69 00 	jmp	0xd2	; 0xd2 <__bad_interrupt>
      94:	0c 94 69 00 	jmp	0xd2	; 0xd2 <__bad_interrupt>
      98:	0c 94 69 00 	jmp	0xd2	; 0xd2 <__bad_interrupt>
      9c:	0c 94 69 00 	jmp	0xd2	; 0xd2 <__bad_interrupt>
      a0:	bf 02       	muls	r27, r31
      a2:	c5 02       	muls	r28, r21
      a4:	cb 02       	muls	r28, r27
      a6:	d1 02       	muls	r29, r17
      a8:	d7 02       	muls	r29, r23
      aa:	10 03       	mulsu	r17, r16
      ac:	f6 02       	muls	r31, r22

000000ae <__ctors_end>:
      ae:	11 24       	eor	r1, r1
      b0:	1f be       	out	0x3f, r1	; 63
      b2:	cf ef       	ldi	r28, 0xFF	; 255
      b4:	cd bf       	out	0x3d, r28	; 61
      b6:	df e3       	ldi	r29, 0x3F	; 63
      b8:	de bf       	out	0x3e, r29	; 62

000000ba <__do_clear_bss>:
      ba:	28 e2       	ldi	r18, 0x28	; 40
      bc:	a0 e0       	ldi	r26, 0x00	; 0
      be:	b8 e2       	ldi	r27, 0x28	; 40
      c0:	01 c0       	rjmp	.+2      	; 0xc4 <.do_clear_bss_start>

000000c2 <.do_clear_bss_loop>:
      c2:	1d 92       	st	X+, r1

000000c4 <.do_clear_bss_start>:
      c4:	ae 3e       	cpi	r26, 0xEE	; 238
      c6:	b2 07       	cpc	r27, r18
      c8:	e1 f7       	brne	.-8      	; 0xc2 <.do_clear_bss_loop>
      ca:	0e 94 69 09 	call	0x12d2	; 0x12d2 <main>
      ce:	0c 94 25 0d 	jmp	0x1a4a	; 0x1a4a <_exit>

000000d2 <__bad_interrupt>:
      d2:	0c 94 00 00 	jmp	0	; 0x0 <__vectors>

000000d6 <init_ports>:

	// Set 4 pins as inputs with pullups, 3 pins have interrupts enabled.
	PORTE.PIN0CTRL = PORT_PULLUPEN_bm | PORT_ISC_BOTHEDGES_gc;
	PORTE.PIN1CTRL = PORT_PULLUPEN_bm | PORT_ISC_BOTHEDGES_gc;
	PORTE.PIN2CTRL = PORT_PULLUPEN_bm | PORT_ISC_BOTHEDGES_gc;
	PORTE.PIN3CTRL = PORT_PULLUPEN_bm;	// No thermistor here
      d6:	e0 e0       	ldi	r30, 0x00	; 0
      d8:	f4 e0       	ldi	r31, 0x04	; 4
      da:	88 e0       	ldi	r24, 0x08	; 8
      dc:	80 8b       	std	Z+16, r24	; 0x10
      de:	81 8b       	std	Z+17, r24	; 0x11
      e0:	82 8b       	std	Z+18, r24	; 0x12
      e2:	83 8b       	std	Z+19, r24	; 0x13
      e4:	84 8b       	std	Z+20, r24	; 0x14
      e6:	85 8b       	std	Z+21, r24	; 0x15
      e8:	86 8b       	std	Z+22, r24	; 0x16
      ea:	87 8b       	std	Z+23, r24	; 0x17
      ec:	e0 e2       	ldi	r30, 0x20	; 32
      ee:	f4 e0       	ldi	r31, 0x04	; 4
      f0:	80 8b       	std	Z+16, r24	; 0x10
      f2:	81 8b       	std	Z+17, r24	; 0x11
      f4:	82 8b       	std	Z+18, r24	; 0x12
      f6:	83 8b       	std	Z+19, r24	; 0x13
      f8:	84 8b       	std	Z+20, r24	; 0x14
      fa:	85 8b       	std	Z+21, r24	; 0x15
      fc:	e0 e4       	ldi	r30, 0x40	; 64
      fe:	f4 e0       	ldi	r31, 0x04	; 4
     100:	80 8b       	std	Z+16, r24	; 0x10
     102:	81 8b       	std	Z+17, r24	; 0x11
     104:	82 8b       	std	Z+18, r24	; 0x12
     106:	83 8b       	std	Z+19, r24	; 0x13
     108:	84 8b       	std	Z+20, r24	; 0x14
     10a:	85 8b       	std	Z+21, r24	; 0x15
     10c:	86 8b       	std	Z+22, r24	; 0x16
     10e:	87 8b       	std	Z+23, r24	; 0x17
     110:	e0 e6       	ldi	r30, 0x60	; 96
     112:	f4 e0       	ldi	r31, 0x04	; 4
     114:	94 e0       	ldi	r25, 0x04	; 4
     116:	90 8b       	std	Z+16, r25	; 0x10
     118:	91 8b       	std	Z+17, r25	; 0x11
     11a:	92 8b       	std	Z+18, r25	; 0x12
     11c:	93 8b       	std	Z+19, r25	; 0x13
     11e:	94 8b       	std	Z+20, r25	; 0x14
     120:	95 8b       	std	Z+21, r25	; 0x15
     122:	96 8b       	std	Z+22, r25	; 0x16
     124:	97 8b       	std	Z+23, r25	; 0x17
     126:	e0 e8       	ldi	r30, 0x80	; 128
     128:	f4 e0       	ldi	r31, 0x04	; 4
     12a:	80 8b       	std	Z+16, r24	; 0x10
     12c:	81 8b       	std	Z+17, r24	; 0x11
     12e:	82 8b       	std	Z+18, r24	; 0x12
     130:	83 8b       	std	Z+19, r24	; 0x13
     132:	e0 ea       	ldi	r30, 0xA0	; 160
     134:	f4 e0       	ldi	r31, 0x04	; 4
     136:	80 8b       	std	Z+16, r24	; 0x10
     138:	81 8b       	std	Z+17, r24	; 0x11
     13a:	82 8b       	std	Z+18, r24	; 0x12
     13c:	83 8b       	std	Z+19, r24	; 0x13
     13e:	84 8b       	std	Z+20, r24	; 0x14
     140:	85 8b       	std	Z+21, r24	; 0x15
     142:	86 8b       	std	Z+22, r24	; 0x16
     144:	08 95       	ret

00000146 <init_LED>:
     146:	e0 ea       	ldi	r30, 0xA0	; 160
     148:	f4 e0       	ldi	r31, 0x04	; 4
     14a:	80 e2       	ldi	r24, 0x20	; 32
     14c:	85 83       	std	Z+5, r24	; 0x05
     14e:	81 83       	std	Z+1, r24	; 0x01
     150:	08 95       	ret

00000152 <init_TCB2>:
     152:	e0 e4       	ldi	r30, 0x40	; 64
     154:	f4 e0       	ldi	r31, 0x04	; 4
     156:	80 81       	ld	r24, Z
     158:	81 60       	ori	r24, 0x01	; 1
     15a:	80 83       	st	Z, r24
     15c:	e4 e4       	ldi	r30, 0x44	; 68
     15e:	f4 e0       	ldi	r31, 0x04	; 4
     160:	80 81       	ld	r24, Z
     162:	81 60       	ori	r24, 0x01	; 1
     164:	80 83       	st	Z, r24
     166:	e0 ea       	ldi	r30, 0xA0	; 160
     168:	fa e0       	ldi	r31, 0x0A	; 10
     16a:	8c e2       	ldi	r24, 0x2C	; 44
     16c:	92 e0       	ldi	r25, 0x02	; 2
     16e:	84 87       	std	Z+12, r24	; 0x0c
     170:	95 87       	std	Z+13, r25	; 0x0d
     172:	80 81       	ld	r24, Z
     174:	81 60       	ori	r24, 0x01	; 1
     176:	80 83       	st	Z, r24
     178:	80 81       	ld	r24, Z
     17a:	82 60       	ori	r24, 0x02	; 2
     17c:	80 83       	st	Z, r24
     17e:	85 81       	ldd	r24, Z+5	; 0x05
     180:	81 60       	ori	r24, 0x01	; 1
     182:	85 83       	std	Z+5, r24	; 0x05
     184:	08 95       	ret

00000186 <__vector_25>:
     186:	1f 92       	push	r1
     188:	0f 92       	push	r0
     18a:	0f b6       	in	r0, 0x3f	; 63
     18c:	0f 92       	push	r0
     18e:	11 24       	eor	r1, r1
     190:	8f 93       	push	r24
     192:	ef 93       	push	r30
     194:	ff 93       	push	r31
     196:	81 e0       	ldi	r24, 0x01	; 1
     198:	80 93 a6 0a 	sts	0x0AA6, r24	; 0x800aa6 <__TEXT_REGION_LENGTH__+0x7f4aa6>
     19c:	e0 e4       	ldi	r30, 0x40	; 64
     19e:	f4 e0       	ldi	r31, 0x04	; 4
     1a0:	87 81       	ldd	r24, Z+7	; 0x07
     1a2:	81 60       	ori	r24, 0x01	; 1
     1a4:	87 83       	std	Z+7, r24	; 0x07
     1a6:	ff 91       	pop	r31
     1a8:	ef 91       	pop	r30
     1aa:	8f 91       	pop	r24
     1ac:	0f 90       	pop	r0
     1ae:	0f be       	out	0x3f, r0	; 63
     1b0:	0f 90       	pop	r0
     1b2:	1f 90       	pop	r1
     1b4:	18 95       	reti

000001b6 <init_switches>:
     1b6:	e0 e2       	ldi	r30, 0x20	; 32
     1b8:	f4 e0       	ldi	r31, 0x04	; 4
     1ba:	8b e0       	ldi	r24, 0x0B	; 11
     1bc:	82 8b       	std	Z+18, r24	; 0x12
     1be:	83 8b       	std	Z+19, r24	; 0x13
     1c0:	80 8b       	std	Z+16, r24	; 0x10
     1c2:	81 8b       	std	Z+17, r24	; 0x11
     1c4:	e0 e4       	ldi	r30, 0x40	; 64
     1c6:	f4 e0       	ldi	r31, 0x04	; 4
     1c8:	83 8b       	std	Z+19, r24	; 0x13
     1ca:	81 8b       	std	Z+17, r24	; 0x11
     1cc:	80 93 b6 04 	sts	0x04B6, r24	; 0x8004b6 <__TEXT_REGION_LENGTH__+0x7f44b6>
     1d0:	10 92 68 28 	sts	0x2868, r1	; 0x802868 <encoder_value>
     1d4:	10 92 00 28 	sts	0x2800, r1	; 0x802800 <__DATA_REGION_ORIGIN__>
     1d8:	08 95       	ret

000001da <__vector_34>:
     1da:	1f 92       	push	r1
     1dc:	0f 92       	push	r0
     1de:	0f b6       	in	r0, 0x3f	; 63
     1e0:	0f 92       	push	r0
     1e2:	11 24       	eor	r1, r1
     1e4:	8f 93       	push	r24
     1e6:	80 91 29 04 	lds	r24, 0x0429	; 0x800429 <__TEXT_REGION_LENGTH__+0x7f4429>
     1ea:	82 ff       	sbrs	r24, 2
     1ec:	06 c0       	rjmp	.+12     	; 0x1fa <__vector_34+0x20>
     1ee:	84 e0       	ldi	r24, 0x04	; 4
     1f0:	80 93 29 04 	sts	0x0429, r24	; 0x800429 <__TEXT_REGION_LENGTH__+0x7f4429>
     1f4:	81 e0       	ldi	r24, 0x01	; 1
     1f6:	80 93 00 28 	sts	0x2800, r24	; 0x802800 <__DATA_REGION_ORIGIN__>
     1fa:	80 91 29 04 	lds	r24, 0x0429	; 0x800429 <__TEXT_REGION_LENGTH__+0x7f4429>
     1fe:	83 ff       	sbrs	r24, 3
     200:	06 c0       	rjmp	.+12     	; 0x20e <__vector_34+0x34>
     202:	88 e0       	ldi	r24, 0x08	; 8
     204:	80 93 29 04 	sts	0x0429, r24	; 0x800429 <__TEXT_REGION_LENGTH__+0x7f4429>
     208:	82 e0       	ldi	r24, 0x02	; 2
     20a:	80 93 00 28 	sts	0x2800, r24	; 0x802800 <__DATA_REGION_ORIGIN__>
     20e:	80 91 29 04 	lds	r24, 0x0429	; 0x800429 <__TEXT_REGION_LENGTH__+0x7f4429>
     212:	80 ff       	sbrs	r24, 0
     214:	06 c0       	rjmp	.+12     	; 0x222 <__vector_34+0x48>
     216:	81 e0       	ldi	r24, 0x01	; 1
     218:	80 93 29 04 	sts	0x0429, r24	; 0x800429 <__TEXT_REGION_LENGTH__+0x7f4429>
     21c:	83 e0       	ldi	r24, 0x03	; 3
     21e:	80 93 00 28 	sts	0x2800, r24	; 0x802800 <__DATA_REGION_ORIGIN__>
     222:	80 91 29 04 	lds	r24, 0x0429	; 0x800429 <__TEXT_REGION_LENGTH__+0x7f4429>
     226:	81 ff       	sbrs	r24, 1
     228:	06 c0       	rjmp	.+12     	; 0x236 <__vector_34+0x5c>
     22a:	82 e0       	ldi	r24, 0x02	; 2
     22c:	80 93 29 04 	sts	0x0429, r24	; 0x800429 <__TEXT_REGION_LENGTH__+0x7f4429>
     230:	84 e0       	ldi	r24, 0x04	; 4
     232:	80 93 00 28 	sts	0x2800, r24	; 0x802800 <__DATA_REGION_ORIGIN__>
     236:	8f 91       	pop	r24
     238:	0f 90       	pop	r0
     23a:	0f be       	out	0x3f, r0	; 63
     23c:	0f 90       	pop	r0
     23e:	1f 90       	pop	r1
     240:	18 95       	reti

00000242 <__vector_24>:
     242:	1f 92       	push	r1
     244:	0f 92       	push	r0
     246:	0f b6       	in	r0, 0x3f	; 63
     248:	0f 92       	push	r0
     24a:	11 24       	eor	r1, r1
     24c:	8f 93       	push	r24
     24e:	ef 93       	push	r30
     250:	ff 93       	push	r31
     252:	80 91 49 04 	lds	r24, 0x0449	; 0x800449 <__TEXT_REGION_LENGTH__+0x7f4449>
     256:	81 ff       	sbrs	r24, 1
     258:	06 c0       	rjmp	.+12     	; 0x266 <__vector_24+0x24>
     25a:	82 e0       	ldi	r24, 0x02	; 2
     25c:	80 93 49 04 	sts	0x0449, r24	; 0x800449 <__TEXT_REGION_LENGTH__+0x7f4449>
     260:	85 e0       	ldi	r24, 0x05	; 5
     262:	80 93 00 28 	sts	0x2800, r24	; 0x802800 <__DATA_REGION_ORIGIN__>
     266:	80 91 49 04 	lds	r24, 0x0449	; 0x800449 <__TEXT_REGION_LENGTH__+0x7f4449>
     26a:	83 ff       	sbrs	r24, 3
     26c:	15 c0       	rjmp	.+42     	; 0x298 <__vector_24+0x56>
     26e:	e0 e4       	ldi	r30, 0x40	; 64
     270:	f4 e0       	ldi	r31, 0x04	; 4
     272:	88 e0       	ldi	r24, 0x08	; 8
     274:	81 87       	std	Z+9, r24	; 0x09
     276:	80 85       	ldd	r24, Z+8	; 0x08
     278:	82 ff       	sbrs	r24, 2
     27a:	06 c0       	rjmp	.+12     	; 0x288 <__vector_24+0x46>
     27c:	80 91 68 28 	lds	r24, 0x2868	; 0x802868 <encoder_value>
     280:	8f 5f       	subi	r24, 0xFF	; 255
     282:	80 93 68 28 	sts	0x2868, r24	; 0x802868 <encoder_value>
     286:	05 c0       	rjmp	.+10     	; 0x292 <__vector_24+0x50>
     288:	80 91 68 28 	lds	r24, 0x2868	; 0x802868 <encoder_value>
     28c:	81 50       	subi	r24, 0x01	; 1
     28e:	80 93 68 28 	sts	0x2868, r24	; 0x802868 <encoder_value>
     292:	87 e0       	ldi	r24, 0x07	; 7
     294:	80 93 00 28 	sts	0x2800, r24	; 0x802800 <__DATA_REGION_ORIGIN__>
     298:	ff 91       	pop	r31
     29a:	ef 91       	pop	r30
     29c:	8f 91       	pop	r24
     29e:	0f 90       	pop	r0
     2a0:	0f be       	out	0x3f, r0	; 63
     2a2:	0f 90       	pop	r0
     2a4:	1f 90       	pop	r1
     2a6:	18 95       	reti

000002a8 <__vector_29>:
     2a8:	1f 92       	push	r1
     2aa:	0f 92       	push	r0
     2ac:	0f b6       	in	r0, 0x3f	; 63
     2ae:	0f 92       	push	r0
     2b0:	11 24       	eor	r1, r1
     2b2:	8f 93       	push	r24
     2b4:	80 91 a9 04 	lds	r24, 0x04A9	; 0x8004a9 <__TEXT_REGION_LENGTH__+0x7f44a9>
     2b8:	86 ff       	sbrs	r24, 6
     2ba:	08 c0       	rjmp	.+16     	; 0x2cc <__vector_29+0x24>
     2bc:	80 e4       	ldi	r24, 0x40	; 64
     2be:	80 93 a9 04 	sts	0x04A9, r24	; 0x8004a9 <__TEXT_REGION_LENGTH__+0x7f44a9>
     2c2:	10 92 68 28 	sts	0x2868, r1	; 0x802868 <encoder_value>
     2c6:	86 e0       	ldi	r24, 0x06	; 6
     2c8:	80 93 00 28 	sts	0x2800, r24	; 0x802800 <__DATA_REGION_ORIGIN__>
     2cc:	8f 91       	pop	r24
     2ce:	0f 90       	pop	r0
     2d0:	0f be       	out	0x3f, r0	; 63
     2d2:	0f 90       	pop	r0
     2d4:	1f 90       	pop	r1
     2d6:	18 95       	reti

000002d8 <init_TWI>:
     2d8:	e0 ea       	ldi	r30, 0xA0	; 160
     2da:	f8 e0       	ldi	r31, 0x08	; 8
     2dc:	8b e0       	ldi	r24, 0x0B	; 11
     2de:	86 83       	std	Z+6, r24	; 0x06
     2e0:	83 81       	ldd	r24, Z+3	; 0x03
     2e2:	82 60       	ori	r24, 0x02	; 2
     2e4:	83 83       	std	Z+3, r24	; 0x03
     2e6:	83 81       	ldd	r24, Z+3	; 0x03
     2e8:	81 60       	ori	r24, 0x01	; 1
     2ea:	83 83       	std	Z+3, r24	; 0x03
     2ec:	85 81       	ldd	r24, Z+5	; 0x05
     2ee:	81 60       	ori	r24, 0x01	; 1
     2f0:	85 83       	std	Z+5, r24	; 0x05
     2f2:	08 95       	ret

000002f4 <start_TWI>:
     2f4:	61 30       	cpi	r22, 0x01	; 1
     2f6:	09 f4       	brne	.+2      	; 0x2fa <start_TWI+0x6>
     2f8:	81 60       	ori	r24, 0x01	; 1
     2fa:	e0 ea       	ldi	r30, 0xA0	; 160
     2fc:	f8 e0       	ldi	r31, 0x08	; 8
     2fe:	87 83       	std	Z+7, r24	; 0x07
     300:	85 81       	ldd	r24, Z+5	; 0x05
     302:	86 fd       	sbrc	r24, 6
     304:	04 c0       	rjmp	.+8      	; 0x30e <start_TWI+0x1a>
     306:	00 00       	nop
     308:	85 81       	ldd	r24, Z+5	; 0x05
     30a:	86 ff       	sbrs	r24, 6
     30c:	fc cf       	rjmp	.-8      	; 0x306 <start_TWI+0x12>
     30e:	08 95       	ret

00000310 <stop_TWI>:
     310:	e0 ea       	ldi	r30, 0xA0	; 160
     312:	f8 e0       	ldi	r31, 0x08	; 8
     314:	84 81       	ldd	r24, Z+4	; 0x04
     316:	83 60       	ori	r24, 0x03	; 3
     318:	84 83       	std	Z+4, r24	; 0x04
     31a:	08 95       	ret

0000031c <write_TWI>:
     31c:	66 23       	and	r22, r22
     31e:	b1 f0       	breq	.+44     	; 0x34c <write_TWI+0x30>
     320:	dc 01       	movw	r26, r24
     322:	61 50       	subi	r22, 0x01	; 1
     324:	26 2f       	mov	r18, r22
     326:	30 e0       	ldi	r19, 0x00	; 0
     328:	2f 5f       	subi	r18, 0xFF	; 255
     32a:	3f 4f       	sbci	r19, 0xFF	; 255
     32c:	28 0f       	add	r18, r24
     32e:	39 1f       	adc	r19, r25
     330:	e0 ea       	ldi	r30, 0xA0	; 160
     332:	f8 e0       	ldi	r31, 0x08	; 8
     334:	9d 91       	ld	r25, X+
     336:	90 87       	std	Z+8, r25	; 0x08
     338:	95 81       	ldd	r25, Z+5	; 0x05
     33a:	96 fd       	sbrc	r25, 6
     33c:	04 c0       	rjmp	.+8      	; 0x346 <write_TWI+0x2a>
     33e:	00 00       	nop
     340:	95 81       	ldd	r25, Z+5	; 0x05
     342:	96 ff       	sbrs	r25, 6
     344:	fc cf       	rjmp	.-8      	; 0x33e <write_TWI+0x22>
     346:	a2 17       	cp	r26, r18
     348:	b3 07       	cpc	r27, r19
     34a:	a1 f7       	brne	.-24     	; 0x334 <write_TWI+0x18>
     34c:	08 95       	ret

0000034e <write_OLED>:
     34e:	0f 93       	push	r16
     350:	1f 93       	push	r17
     352:	cf 93       	push	r28
     354:	df 93       	push	r29
     356:	00 d0       	rcall	.+0      	; 0x358 <write_OLED+0xa>
     358:	cd b7       	in	r28, 0x3d	; 61
     35a:	de b7       	in	r29, 0x3e	; 62
     35c:	18 2f       	mov	r17, r24
     35e:	06 2f       	mov	r16, r22
     360:	60 e0       	ldi	r22, 0x00	; 0
     362:	88 e7       	ldi	r24, 0x78	; 120
     364:	0e 94 7a 01 	call	0x2f4	; 0x2f4 <start_TWI>
     368:	0a 83       	std	Y+2, r16	; 0x02
     36a:	11 30       	cpi	r17, 0x01	; 1
     36c:	39 f4       	brne	.+14     	; 0x37c <write_OLED+0x2e>
     36e:	19 82       	std	Y+1, r1	; 0x01
     370:	62 e0       	ldi	r22, 0x02	; 2
     372:	ce 01       	movw	r24, r28
     374:	01 96       	adiw	r24, 0x01	; 1
     376:	0e 94 8e 01 	call	0x31c	; 0x31c <write_TWI>
     37a:	09 c0       	rjmp	.+18     	; 0x38e <write_OLED+0x40>
     37c:	11 11       	cpse	r17, r1
     37e:	07 c0       	rjmp	.+14     	; 0x38e <write_OLED+0x40>
     380:	80 e4       	ldi	r24, 0x40	; 64
     382:	89 83       	std	Y+1, r24	; 0x01
     384:	62 e0       	ldi	r22, 0x02	; 2
     386:	ce 01       	movw	r24, r28
     388:	01 96       	adiw	r24, 0x01	; 1
     38a:	0e 94 8e 01 	call	0x31c	; 0x31c <write_TWI>
     38e:	0e 94 88 01 	call	0x310	; 0x310 <stop_TWI>
     392:	0f 90       	pop	r0
     394:	0f 90       	pop	r0
     396:	df 91       	pop	r29
     398:	cf 91       	pop	r28
     39a:	1f 91       	pop	r17
     39c:	0f 91       	pop	r16
     39e:	08 95       	ret

000003a0 <init_OLED>:
     3a0:	6a e2       	ldi	r22, 0x2A	; 42
     3a2:	81 e0       	ldi	r24, 0x01	; 1
     3a4:	0e 94 a7 01 	call	0x34e	; 0x34e <write_OLED>
     3a8:	61 e7       	ldi	r22, 0x71	; 113
     3aa:	81 e0       	ldi	r24, 0x01	; 1
     3ac:	0e 94 a7 01 	call	0x34e	; 0x34e <write_OLED>
     3b0:	60 e0       	ldi	r22, 0x00	; 0
     3b2:	80 e0       	ldi	r24, 0x00	; 0
     3b4:	0e 94 a7 01 	call	0x34e	; 0x34e <write_OLED>
     3b8:	68 e2       	ldi	r22, 0x28	; 40
     3ba:	81 e0       	ldi	r24, 0x01	; 1
     3bc:	0e 94 a7 01 	call	0x34e	; 0x34e <write_OLED>
     3c0:	68 e0       	ldi	r22, 0x08	; 8
     3c2:	81 e0       	ldi	r24, 0x01	; 1
     3c4:	0e 94 a7 01 	call	0x34e	; 0x34e <write_OLED>
     3c8:	6a e2       	ldi	r22, 0x2A	; 42
     3ca:	81 e0       	ldi	r24, 0x01	; 1
     3cc:	0e 94 a7 01 	call	0x34e	; 0x34e <write_OLED>
     3d0:	69 e7       	ldi	r22, 0x79	; 121
     3d2:	81 e0       	ldi	r24, 0x01	; 1
     3d4:	0e 94 a7 01 	call	0x34e	; 0x34e <write_OLED>
     3d8:	65 ed       	ldi	r22, 0xD5	; 213
     3da:	81 e0       	ldi	r24, 0x01	; 1
     3dc:	0e 94 a7 01 	call	0x34e	; 0x34e <write_OLED>
     3e0:	60 e7       	ldi	r22, 0x70	; 112
     3e2:	81 e0       	ldi	r24, 0x01	; 1
     3e4:	0e 94 a7 01 	call	0x34e	; 0x34e <write_OLED>
     3e8:	68 e7       	ldi	r22, 0x78	; 120
     3ea:	81 e0       	ldi	r24, 0x01	; 1
     3ec:	0e 94 a7 01 	call	0x34e	; 0x34e <write_OLED>
     3f0:	68 e0       	ldi	r22, 0x08	; 8
     3f2:	81 e0       	ldi	r24, 0x01	; 1
     3f4:	0e 94 a7 01 	call	0x34e	; 0x34e <write_OLED>
     3f8:	66 e0       	ldi	r22, 0x06	; 6
     3fa:	81 e0       	ldi	r24, 0x01	; 1
     3fc:	0e 94 a7 01 	call	0x34e	; 0x34e <write_OLED>
     400:	62 e7       	ldi	r22, 0x72	; 114
     402:	81 e0       	ldi	r24, 0x01	; 1
     404:	0e 94 a7 01 	call	0x34e	; 0x34e <write_OLED>
     408:	60 e0       	ldi	r22, 0x00	; 0
     40a:	80 e0       	ldi	r24, 0x00	; 0
     40c:	0e 94 a7 01 	call	0x34e	; 0x34e <write_OLED>
     410:	6a e2       	ldi	r22, 0x2A	; 42
     412:	81 e0       	ldi	r24, 0x01	; 1
     414:	0e 94 a7 01 	call	0x34e	; 0x34e <write_OLED>
     418:	69 e7       	ldi	r22, 0x79	; 121
     41a:	81 e0       	ldi	r24, 0x01	; 1
     41c:	0e 94 a7 01 	call	0x34e	; 0x34e <write_OLED>
     420:	6a ed       	ldi	r22, 0xDA	; 218
     422:	81 e0       	ldi	r24, 0x01	; 1
     424:	0e 94 a7 01 	call	0x34e	; 0x34e <write_OLED>
     428:	60 e0       	ldi	r22, 0x00	; 0
     42a:	81 e0       	ldi	r24, 0x01	; 1
     42c:	0e 94 a7 01 	call	0x34e	; 0x34e <write_OLED>
     430:	6c ed       	ldi	r22, 0xDC	; 220
     432:	81 e0       	ldi	r24, 0x01	; 1
     434:	0e 94 a7 01 	call	0x34e	; 0x34e <write_OLED>
     438:	60 e0       	ldi	r22, 0x00	; 0
     43a:	81 e0       	ldi	r24, 0x01	; 1
     43c:	0e 94 a7 01 	call	0x34e	; 0x34e <write_OLED>
     440:	61 e8       	ldi	r22, 0x81	; 129
     442:	81 e0       	ldi	r24, 0x01	; 1
     444:	0e 94 a7 01 	call	0x34e	; 0x34e <write_OLED>
     448:	6f e7       	ldi	r22, 0x7F	; 127
     44a:	81 e0       	ldi	r24, 0x01	; 1
     44c:	0e 94 a7 01 	call	0x34e	; 0x34e <write_OLED>
     450:	69 ed       	ldi	r22, 0xD9	; 217
     452:	81 e0       	ldi	r24, 0x01	; 1
     454:	0e 94 a7 01 	call	0x34e	; 0x34e <write_OLED>
     458:	61 ef       	ldi	r22, 0xF1	; 241
     45a:	81 e0       	ldi	r24, 0x01	; 1
     45c:	0e 94 a7 01 	call	0x34e	; 0x34e <write_OLED>
     460:	6b ed       	ldi	r22, 0xDB	; 219
     462:	81 e0       	ldi	r24, 0x01	; 1
     464:	0e 94 a7 01 	call	0x34e	; 0x34e <write_OLED>
     468:	60 e4       	ldi	r22, 0x40	; 64
     46a:	81 e0       	ldi	r24, 0x01	; 1
     46c:	0e 94 a7 01 	call	0x34e	; 0x34e <write_OLED>
     470:	68 e7       	ldi	r22, 0x78	; 120
     472:	81 e0       	ldi	r24, 0x01	; 1
     474:	0e 94 a7 01 	call	0x34e	; 0x34e <write_OLED>
     478:	68 e2       	ldi	r22, 0x28	; 40
     47a:	81 e0       	ldi	r24, 0x01	; 1
     47c:	0e 94 a7 01 	call	0x34e	; 0x34e <write_OLED>
     480:	61 e0       	ldi	r22, 0x01	; 1
     482:	81 e0       	ldi	r24, 0x01	; 1
     484:	0e 94 a7 01 	call	0x34e	; 0x34e <write_OLED>
     488:	60 e8       	ldi	r22, 0x80	; 128
     48a:	81 e0       	ldi	r24, 0x01	; 1
     48c:	0e 94 a7 01 	call	0x34e	; 0x34e <write_OLED>
     490:	6c e0       	ldi	r22, 0x0C	; 12
     492:	81 e0       	ldi	r24, 0x01	; 1
     494:	0e 94 a7 01 	call	0x34e	; 0x34e <write_OLED>
     498:	2a e6       	ldi	r18, 0x6A	; 106
     49a:	84 e0       	ldi	r24, 0x04	; 4
     49c:	91 e0       	ldi	r25, 0x01	; 1
     49e:	21 50       	subi	r18, 0x01	; 1
     4a0:	80 40       	sbci	r24, 0x00	; 0
     4a2:	90 40       	sbci	r25, 0x00	; 0
     4a4:	e1 f7       	brne	.-8      	; 0x49e <__LOCK_REGION_LENGTH__+0x9e>
     4a6:	00 c0       	rjmp	.+0      	; 0x4a8 <__LOCK_REGION_LENGTH__+0xa8>
     4a8:	08 95       	ret

000004aa <write_OLED_string>:
     4aa:	ef 92       	push	r14
     4ac:	ff 92       	push	r15
     4ae:	0f 93       	push	r16
     4b0:	1f 93       	push	r17
     4b2:	cf 93       	push	r28
     4b4:	df 93       	push	r29
     4b6:	cd b7       	in	r28, 0x3d	; 61
     4b8:	de b7       	in	r29, 0x3e	; 62
     4ba:	ea 97       	sbiw	r28, 0x3a	; 58
     4bc:	cd bf       	out	0x3d, r28	; 61
     4be:	de bf       	out	0x3e, r29	; 62
     4c0:	9c 01       	movw	r18, r24
     4c2:	16 2f       	mov	r17, r22
     4c4:	91 e1       	ldi	r25, 0x11	; 17
     4c6:	ee e4       	ldi	r30, 0x4E	; 78
     4c8:	fa e5       	ldi	r31, 0x5A	; 90
     4ca:	de 01       	movw	r26, r28
     4cc:	9a 96       	adiw	r26, 0x2a	; 42
     4ce:	01 90       	ld	r0, Z+
     4d0:	0d 92       	st	X+, r0
     4d2:	9a 95       	dec	r25
     4d4:	e1 f7       	brne	.-8      	; 0x4ce <write_OLED_string+0x24>
     4d6:	b9 01       	movw	r22, r18
     4d8:	ce 01       	movw	r24, r28
     4da:	01 96       	adiw	r24, 0x01	; 1
     4dc:	0e 94 b9 09 	call	0x1372	; 0x1372 <strcpy>
     4e0:	be 01       	movw	r22, r28
     4e2:	66 5d       	subi	r22, 0xD6	; 214
     4e4:	7f 4f       	sbci	r23, 0xFF	; 255
     4e6:	ce 01       	movw	r24, r28
     4e8:	01 96       	adiw	r24, 0x01	; 1
     4ea:	0e 94 ae 09 	call	0x135c	; 0x135c <strcat>
     4ee:	11 30       	cpi	r17, 0x01	; 1
     4f0:	29 f4       	brne	.+10     	; 0x4fc <write_OLED_string+0x52>
     4f2:	60 e8       	ldi	r22, 0x80	; 128
     4f4:	81 e0       	ldi	r24, 0x01	; 1
     4f6:	0e 94 a7 01 	call	0x34e	; 0x34e <write_OLED>
     4fa:	0f c0       	rjmp	.+30     	; 0x51a <write_OLED_string+0x70>
     4fc:	60 ec       	ldi	r22, 0xC0	; 192
     4fe:	81 e0       	ldi	r24, 0x01	; 1
     500:	0e 94 a7 01 	call	0x34e	; 0x34e <write_OLED>
     504:	0a c0       	rjmp	.+20     	; 0x51a <write_OLED_string+0x70>
     506:	f8 01       	movw	r30, r16
     508:	61 91       	ld	r22, Z+
     50a:	8f 01       	movw	r16, r30
     50c:	80 e0       	ldi	r24, 0x00	; 0
     50e:	0e 94 a7 01 	call	0x34e	; 0x34e <write_OLED>
     512:	0e 15       	cp	r16, r14
     514:	1f 05       	cpc	r17, r15
     516:	b9 f7       	brne	.-18     	; 0x506 <write_OLED_string+0x5c>
     518:	08 c0       	rjmp	.+16     	; 0x52a <write_OLED_string+0x80>
     51a:	8e 01       	movw	r16, r28
     51c:	0f 5f       	subi	r16, 0xFF	; 255
     51e:	1f 4f       	sbci	r17, 0xFF	; 255
     520:	7e 01       	movw	r14, r28
     522:	f1 e1       	ldi	r31, 0x11	; 17
     524:	ef 0e       	add	r14, r31
     526:	f1 1c       	adc	r15, r1
     528:	ee cf       	rjmp	.-36     	; 0x506 <write_OLED_string+0x5c>
     52a:	ea 96       	adiw	r28, 0x3a	; 58
     52c:	cd bf       	out	0x3d, r28	; 61
     52e:	de bf       	out	0x3e, r29	; 62
     530:	df 91       	pop	r29
     532:	cf 91       	pop	r28
     534:	1f 91       	pop	r17
     536:	0f 91       	pop	r16
     538:	ff 90       	pop	r15
     53a:	ef 90       	pop	r14
     53c:	08 95       	ret

0000053e <handle_switches>:
     53e:	0f 93       	push	r16
     540:	1f 93       	push	r17
     542:	cf 93       	push	r28
     544:	df 93       	push	r29
     546:	cd b7       	in	r28, 0x3d	; 61
     548:	de b7       	in	r29, 0x3e	; 62
     54a:	61 97       	sbiw	r28, 0x11	; 17
     54c:	cd bf       	out	0x3d, r28	; 61
     54e:	de bf       	out	0x3e, r29	; 62
     550:	61 e0       	ldi	r22, 0x01	; 1
     552:	81 e0       	ldi	r24, 0x01	; 1
     554:	0e 94 a7 01 	call	0x34e	; 0x34e <write_OLED>
     558:	85 e0       	ldi	r24, 0x05	; 5
     55a:	9d e0       	ldi	r25, 0x0D	; 13
     55c:	01 97       	sbiw	r24, 0x01	; 1
     55e:	f1 f7       	brne	.-4      	; 0x55c <handle_switches+0x1e>
     560:	00 00       	nop
     562:	e0 91 00 28 	lds	r30, 0x2800	; 0x802800 <__DATA_REGION_ORIGIN__>
     566:	8e 2f       	mov	r24, r30
     568:	90 e0       	ldi	r25, 0x00	; 0
     56a:	fc 01       	movw	r30, r24
     56c:	31 97       	sbiw	r30, 0x01	; 1
     56e:	e7 30       	cpi	r30, 0x07	; 7
     570:	f1 05       	cpc	r31, r1
     572:	08 f0       	brcs	.+2      	; 0x576 <handle_switches+0x38>
     574:	74 c0       	rjmp	.+232    	; 0x65e <handle_switches+0x120>
     576:	e0 5b       	subi	r30, 0xB0	; 176
     578:	ff 4f       	sbci	r31, 0xFF	; 255
     57a:	0c 94 8a 09 	jmp	0x1314	; 0x1314 <__tablejump2__>
     57e:	61 e0       	ldi	r22, 0x01	; 1
     580:	8f e5       	ldi	r24, 0x5F	; 95
     582:	9a e5       	ldi	r25, 0x5A	; 90
     584:	0e 94 55 02 	call	0x4aa	; 0x4aa <write_OLED_string>
     588:	6f c0       	rjmp	.+222    	; 0x668 <handle_switches+0x12a>
     58a:	61 e0       	ldi	r22, 0x01	; 1
     58c:	8b e6       	ldi	r24, 0x6B	; 107
     58e:	9a e5       	ldi	r25, 0x5A	; 90
     590:	0e 94 55 02 	call	0x4aa	; 0x4aa <write_OLED_string>
     594:	69 c0       	rjmp	.+210    	; 0x668 <handle_switches+0x12a>
     596:	61 e0       	ldi	r22, 0x01	; 1
     598:	86 e7       	ldi	r24, 0x76	; 118
     59a:	9a e5       	ldi	r25, 0x5A	; 90
     59c:	0e 94 55 02 	call	0x4aa	; 0x4aa <write_OLED_string>
     5a0:	63 c0       	rjmp	.+198    	; 0x668 <handle_switches+0x12a>
     5a2:	61 e0       	ldi	r22, 0x01	; 1
     5a4:	84 e8       	ldi	r24, 0x84	; 132
     5a6:	9a e5       	ldi	r25, 0x5A	; 90
     5a8:	0e 94 55 02 	call	0x4aa	; 0x4aa <write_OLED_string>
     5ac:	5d c0       	rjmp	.+186    	; 0x668 <handle_switches+0x12a>
     5ae:	80 91 68 28 	lds	r24, 0x2868	; 0x802868 <encoder_value>
     5b2:	1f 92       	push	r1
     5b4:	8f 93       	push	r24
     5b6:	82 e9       	ldi	r24, 0x92	; 146
     5b8:	9a e5       	ldi	r25, 0x5A	; 90
     5ba:	9f 93       	push	r25
     5bc:	8f 93       	push	r24
     5be:	8e 01       	movw	r16, r28
     5c0:	0f 5f       	subi	r16, 0xFF	; 255
     5c2:	1f 4f       	sbci	r17, 0xFF	; 255
     5c4:	1f 93       	push	r17
     5c6:	0f 93       	push	r16
     5c8:	0e 94 ed 09 	call	0x13da	; 0x13da <sprintf>
     5cc:	61 e0       	ldi	r22, 0x01	; 1
     5ce:	c8 01       	movw	r24, r16
     5d0:	0e 94 55 02 	call	0x4aa	; 0x4aa <write_OLED_string>
     5d4:	62 e0       	ldi	r22, 0x02	; 2
     5d6:	8d e9       	ldi	r24, 0x9D	; 157
     5d8:	9a e5       	ldi	r25, 0x5A	; 90
     5da:	0e 94 55 02 	call	0x4aa	; 0x4aa <write_OLED_string>
     5de:	0f 90       	pop	r0
     5e0:	0f 90       	pop	r0
     5e2:	0f 90       	pop	r0
     5e4:	0f 90       	pop	r0
     5e6:	0f 90       	pop	r0
     5e8:	0f 90       	pop	r0
     5ea:	3e c0       	rjmp	.+124    	; 0x668 <handle_switches+0x12a>
     5ec:	80 91 68 28 	lds	r24, 0x2868	; 0x802868 <encoder_value>
     5f0:	1f 92       	push	r1
     5f2:	8f 93       	push	r24
     5f4:	82 e9       	ldi	r24, 0x92	; 146
     5f6:	9a e5       	ldi	r25, 0x5A	; 90
     5f8:	9f 93       	push	r25
     5fa:	8f 93       	push	r24
     5fc:	8e 01       	movw	r16, r28
     5fe:	0f 5f       	subi	r16, 0xFF	; 255
     600:	1f 4f       	sbci	r17, 0xFF	; 255
     602:	1f 93       	push	r17
     604:	0f 93       	push	r16
     606:	0e 94 ed 09 	call	0x13da	; 0x13da <sprintf>
     60a:	61 e0       	ldi	r22, 0x01	; 1
     60c:	c8 01       	movw	r24, r16
     60e:	0e 94 55 02 	call	0x4aa	; 0x4aa <write_OLED_string>
     612:	0f 90       	pop	r0
     614:	0f 90       	pop	r0
     616:	0f 90       	pop	r0
     618:	0f 90       	pop	r0
     61a:	0f 90       	pop	r0
     61c:	0f 90       	pop	r0
     61e:	24 c0       	rjmp	.+72     	; 0x668 <handle_switches+0x12a>
     620:	80 91 68 28 	lds	r24, 0x2868	; 0x802868 <encoder_value>
     624:	1f 92       	push	r1
     626:	8f 93       	push	r24
     628:	82 e9       	ldi	r24, 0x92	; 146
     62a:	9a e5       	ldi	r25, 0x5A	; 90
     62c:	9f 93       	push	r25
     62e:	8f 93       	push	r24
     630:	8e 01       	movw	r16, r28
     632:	0f 5f       	subi	r16, 0xFF	; 255
     634:	1f 4f       	sbci	r17, 0xFF	; 255
     636:	1f 93       	push	r17
     638:	0f 93       	push	r16
     63a:	0e 94 ed 09 	call	0x13da	; 0x13da <sprintf>
     63e:	61 e0       	ldi	r22, 0x01	; 1
     640:	c8 01       	movw	r24, r16
     642:	0e 94 55 02 	call	0x4aa	; 0x4aa <write_OLED_string>
     646:	62 e0       	ldi	r22, 0x02	; 2
     648:	8c ea       	ldi	r24, 0xAC	; 172
     64a:	9a e5       	ldi	r25, 0x5A	; 90
     64c:	0e 94 55 02 	call	0x4aa	; 0x4aa <write_OLED_string>
     650:	0f 90       	pop	r0
     652:	0f 90       	pop	r0
     654:	0f 90       	pop	r0
     656:	0f 90       	pop	r0
     658:	0f 90       	pop	r0
     65a:	0f 90       	pop	r0
     65c:	05 c0       	rjmp	.+10     	; 0x668 <handle_switches+0x12a>
     65e:	61 e0       	ldi	r22, 0x01	; 1
     660:	8a eb       	ldi	r24, 0xBA	; 186
     662:	9a e5       	ldi	r25, 0x5A	; 90
     664:	0e 94 55 02 	call	0x4aa	; 0x4aa <write_OLED_string>
     668:	10 92 00 28 	sts	0x2800, r1	; 0x802800 <__DATA_REGION_ORIGIN__>
     66c:	61 96       	adiw	r28, 0x11	; 17
     66e:	cd bf       	out	0x3d, r28	; 61
     670:	de bf       	out	0x3e, r29	; 62
     672:	df 91       	pop	r29
     674:	cf 91       	pop	r28
     676:	1f 91       	pop	r17
     678:	0f 91       	pop	r16
     67a:	08 95       	ret

0000067c <init_status>:
     67c:	cf 93       	push	r28
     67e:	df 93       	push	r29
     680:	c0 ed       	ldi	r28, 0xD0	; 208
     682:	d8 e2       	ldi	r29, 0x28	; 40
     684:	8b e0       	ldi	r24, 0x0B	; 11
     686:	e0 ec       	ldi	r30, 0xC0	; 192
     688:	fa e5       	ldi	r31, 0x5A	; 90
     68a:	de 01       	movw	r26, r28
     68c:	01 90       	ld	r0, Z+
     68e:	0d 92       	st	X+, r0
     690:	8a 95       	dec	r24
     692:	e1 f7       	brne	.-8      	; 0x68c <init_status+0x10>
     694:	4a e0       	ldi	r20, 0x0A	; 10
     696:	50 e0       	ldi	r21, 0x00	; 0
     698:	60 e0       	ldi	r22, 0x00	; 0
     69a:	70 e0       	ldi	r23, 0x00	; 0
     69c:	ce 01       	movw	r24, r28
     69e:	0e 94 bc 0c 	call	0x1978	; 0x1978 <eeprom_update_block>
     6a2:	81 e0       	ldi	r24, 0x01	; 1
     6a4:	89 8b       	std	Y+17, r24	; 0x11
     6a6:	8a 8b       	std	Y+18, r24	; 0x12
     6a8:	8a e0       	ldi	r24, 0x0A	; 10
     6aa:	90 e0       	ldi	r25, 0x00	; 0
     6ac:	0e 94 b4 0c 	call	0x1968	; 0x1968 <eeprom_read_byte>
     6b0:	8b 8b       	std	Y+19, r24	; 0x13
     6b2:	8c 8b       	std	Y+20, r24	; 0x14
     6b4:	1d 8a       	std	Y+21, r1	; 0x15
     6b6:	1e 8a       	std	Y+22, r1	; 0x16
     6b8:	1f 8a       	std	Y+23, r1	; 0x17
     6ba:	18 8e       	std	Y+24, r1	; 0x18
     6bc:	8b e0       	ldi	r24, 0x0B	; 11
     6be:	90 e0       	ldi	r25, 0x00	; 0
     6c0:	0e 94 b4 0c 	call	0x1968	; 0x1968 <eeprom_read_byte>
     6c4:	89 8f       	std	Y+25, r24	; 0x19
     6c6:	1a 8e       	std	Y+26, r1	; 0x1a
     6c8:	1b 8e       	std	Y+27, r1	; 0x1b
     6ca:	1c 8e       	std	Y+28, r1	; 0x1c
     6cc:	1d 8e       	std	Y+29, r1	; 0x1d
     6ce:	df 91       	pop	r29
     6d0:	cf 91       	pop	r28
     6d2:	08 95       	ret

000006d4 <init_Valves>:
     6d4:	e0 e4       	ldi	r30, 0x40	; 64
     6d6:	f4 e0       	ldi	r31, 0x04	; 4
     6d8:	14 8a       	std	Z+20, r1	; 0x14
     6da:	15 8a       	std	Z+21, r1	; 0x15
     6dc:	16 8a       	std	Z+22, r1	; 0x16
     6de:	17 8a       	std	Z+23, r1	; 0x17
     6e0:	80 ef       	ldi	r24, 0xF0	; 240
     6e2:	86 83       	std	Z+6, r24	; 0x06
     6e4:	81 83       	std	Z+1, r24	; 0x01
     6e6:	08 95       	ret

000006e8 <init_Serial>:
     6e8:	e0 e0       	ldi	r30, 0x00	; 0
     6ea:	f4 e0       	ldi	r31, 0x04	; 4
     6ec:	81 e0       	ldi	r24, 0x01	; 1
     6ee:	85 83       	std	Z+5, r24	; 0x05
     6f0:	81 83       	std	Z+1, r24	; 0x01
     6f2:	e0 e0       	ldi	r30, 0x00	; 0
     6f4:	f8 e0       	ldi	r31, 0x08	; 8
     6f6:	2d e6       	ldi	r18, 0x6D	; 109
     6f8:	35 e0       	ldi	r19, 0x05	; 5
     6fa:	20 87       	std	Z+8, r18	; 0x08
     6fc:	31 87       	std	Z+9, r19	; 0x09
     6fe:	95 81       	ldd	r25, Z+5	; 0x05
     700:	90 68       	ori	r25, 0x80	; 128
     702:	95 83       	std	Z+5, r25	; 0x05
     704:	96 81       	ldd	r25, Z+6	; 0x06
     706:	90 64       	ori	r25, 0x40	; 64
     708:	96 83       	std	Z+6, r25	; 0x06
     70a:	96 81       	ldd	r25, Z+6	; 0x06
     70c:	90 68       	ori	r25, 0x80	; 128
     70e:	96 83       	std	Z+6, r25	; 0x06
     710:	80 93 ce 28 	sts	0x28CE, r24	; 0x8028ce <send_buf+0x65>
     714:	10 92 66 28 	sts	0x2866, r1	; 0x802866 <recv_buf+0x65>
     718:	08 95       	ret

0000071a <send_serial>:
     71a:	80 91 ce 28 	lds	r24, 0x28CE	; 0x8028ce <send_buf+0x65>
     71e:	81 11       	cpse	r24, r1
     720:	06 c0       	rjmp	.+12     	; 0x72e <send_serial+0x14>
     722:	ee ec       	ldi	r30, 0xCE	; 206
     724:	f8 e2       	ldi	r31, 0x28	; 40
     726:	00 00       	nop
     728:	80 81       	ld	r24, Z
     72a:	88 23       	and	r24, r24
     72c:	e1 f3       	breq	.-8      	; 0x726 <send_serial+0xc>
     72e:	10 92 cf 28 	sts	0x28CF, r1	; 0x8028cf <send_buf+0x66>
     732:	10 92 ce 28 	sts	0x28CE, r1	; 0x8028ce <send_buf+0x65>
     736:	e0 e0       	ldi	r30, 0x00	; 0
     738:	f8 e0       	ldi	r31, 0x08	; 8
     73a:	85 81       	ldd	r24, Z+5	; 0x05
     73c:	80 62       	ori	r24, 0x20	; 32
     73e:	85 83       	std	Z+5, r24	; 0x05
     740:	08 95       	ret

00000742 <__vector_17>:
     742:	1f 92       	push	r1
     744:	0f 92       	push	r0
     746:	0f b6       	in	r0, 0x3f	; 63
     748:	0f 92       	push	r0
     74a:	11 24       	eor	r1, r1
     74c:	8f 93       	push	r24
     74e:	9f 93       	push	r25
     750:	af 93       	push	r26
     752:	bf 93       	push	r27
     754:	ef 93       	push	r30
     756:	ff 93       	push	r31
     758:	80 91 00 08 	lds	r24, 0x0800	; 0x800800 <__TEXT_REGION_LENGTH__+0x7f4800>
     75c:	8d 30       	cpi	r24, 0x0D	; 13
     75e:	79 f4       	brne	.+30     	; 0x77e <__vector_17+0x3c>
     760:	81 e0       	ldi	r24, 0x01	; 1
     762:	80 93 66 28 	sts	0x2866, r24	; 0x802866 <recv_buf+0x65>
     766:	a7 e6       	ldi	r26, 0x67	; 103
     768:	b8 e2       	ldi	r27, 0x28	; 40
     76a:	ec 91       	ld	r30, X
     76c:	f0 e0       	ldi	r31, 0x00	; 0
     76e:	ef 5f       	subi	r30, 0xFF	; 255
     770:	f7 4d       	sbci	r31, 0xD7	; 215
     772:	10 82       	st	Z, r1
     774:	8c 91       	ld	r24, X
     776:	80 93 65 28 	sts	0x2865, r24	; 0x802865 <recv_buf+0x64>
     77a:	1c 92       	st	X, r1
     77c:	0a c0       	rjmp	.+20     	; 0x792 <__vector_17+0x50>
     77e:	a7 e6       	ldi	r26, 0x67	; 103
     780:	b8 e2       	ldi	r27, 0x28	; 40
     782:	ec 91       	ld	r30, X
     784:	91 e0       	ldi	r25, 0x01	; 1
     786:	9e 0f       	add	r25, r30
     788:	9c 93       	st	X, r25
     78a:	f0 e0       	ldi	r31, 0x00	; 0
     78c:	ef 5f       	subi	r30, 0xFF	; 255
     78e:	f7 4d       	sbci	r31, 0xD7	; 215
     790:	80 83       	st	Z, r24
     792:	ff 91       	pop	r31
     794:	ef 91       	pop	r30
     796:	bf 91       	pop	r27
     798:	af 91       	pop	r26
     79a:	9f 91       	pop	r25
     79c:	8f 91       	pop	r24
     79e:	0f 90       	pop	r0
     7a0:	0f be       	out	0x3f, r0	; 63
     7a2:	0f 90       	pop	r0
     7a4:	1f 90       	pop	r1
     7a6:	18 95       	reti

000007a8 <__vector_18>:
     7a8:	1f 92       	push	r1
     7aa:	0f 92       	push	r0
     7ac:	0f b6       	in	r0, 0x3f	; 63
     7ae:	0f 92       	push	r0
     7b0:	11 24       	eor	r1, r1
     7b2:	8f 93       	push	r24
     7b4:	9f 93       	push	r25
     7b6:	af 93       	push	r26
     7b8:	bf 93       	push	r27
     7ba:	cf 93       	push	r28
     7bc:	df 93       	push	r29
     7be:	ef 93       	push	r30
     7c0:	ff 93       	push	r31
     7c2:	c0 e0       	ldi	r28, 0x00	; 0
     7c4:	d8 e0       	ldi	r29, 0x08	; 8
     7c6:	8d 81       	ldd	r24, Y+5	; 0x05
     7c8:	8f 7d       	andi	r24, 0xDF	; 223
     7ca:	8d 83       	std	Y+5, r24	; 0x05
     7cc:	af ec       	ldi	r26, 0xCF	; 207
     7ce:	b8 e2       	ldi	r27, 0x28	; 40
     7d0:	ec 91       	ld	r30, X
     7d2:	81 e0       	ldi	r24, 0x01	; 1
     7d4:	8e 0f       	add	r24, r30
     7d6:	8c 93       	st	X, r24
     7d8:	f0 e0       	ldi	r31, 0x00	; 0
     7da:	e7 59       	subi	r30, 0x97	; 151
     7dc:	f7 4d       	sbci	r31, 0xD7	; 215
     7de:	80 81       	ld	r24, Z
     7e0:	8a 83       	std	Y+2, r24	; 0x02
     7e2:	9c 91       	ld	r25, X
     7e4:	80 91 cd 28 	lds	r24, 0x28CD	; 0x8028cd <send_buf+0x64>
     7e8:	98 17       	cp	r25, r24
     7ea:	20 f0       	brcs	.+8      	; 0x7f4 <__vector_18+0x4c>
     7ec:	81 e0       	ldi	r24, 0x01	; 1
     7ee:	80 93 ce 28 	sts	0x28CE, r24	; 0x8028ce <send_buf+0x65>
     7f2:	05 c0       	rjmp	.+10     	; 0x7fe <__vector_18+0x56>
     7f4:	e0 e0       	ldi	r30, 0x00	; 0
     7f6:	f8 e0       	ldi	r31, 0x08	; 8
     7f8:	85 81       	ldd	r24, Z+5	; 0x05
     7fa:	80 62       	ori	r24, 0x20	; 32
     7fc:	85 83       	std	Z+5, r24	; 0x05
     7fe:	ff 91       	pop	r31
     800:	ef 91       	pop	r30
     802:	df 91       	pop	r29
     804:	cf 91       	pop	r28
     806:	bf 91       	pop	r27
     808:	af 91       	pop	r26
     80a:	9f 91       	pop	r25
     80c:	8f 91       	pop	r24
     80e:	0f 90       	pop	r0
     810:	0f be       	out	0x3f, r0	; 63
     812:	0f 90       	pop	r0
     814:	1f 90       	pop	r1
     816:	18 95       	reti

00000818 <print_status>:
     818:	cf 92       	push	r12
     81a:	df 92       	push	r13
     81c:	ef 92       	push	r14
     81e:	ff 92       	push	r15
     820:	0f 93       	push	r16
     822:	1f 93       	push	r17
     824:	cf 93       	push	r28
     826:	df 93       	push	r29
     828:	cd b7       	in	r28, 0x3d	; 61
     82a:	de b7       	in	r29, 0x3e	; 62
     82c:	64 97       	sbiw	r28, 0x14	; 20
     82e:	cd bf       	out	0x3d, r28	; 61
     830:	de bf       	out	0x3e, r29	; 62
     832:	e8 e0       	ldi	r30, 0x08	; 8
     834:	f6 e0       	ldi	r31, 0x06	; 6
     836:	80 81       	ld	r24, Z
     838:	81 60       	ori	r24, 0x01	; 1
     83a:	80 83       	st	Z, r24
     83c:	09 e6       	ldi	r16, 0x69	; 105
     83e:	18 e2       	ldi	r17, 0x28	; 40
     840:	86 e5       	ldi	r24, 0x56	; 86
     842:	95 e6       	ldi	r25, 0x65	; 101
     844:	f8 01       	movw	r30, r16
     846:	80 83       	st	Z, r24
     848:	91 83       	std	Z+1, r25	; 0x01
     84a:	82 e7       	ldi	r24, 0x72	; 114
     84c:	90 e0       	ldi	r25, 0x00	; 0
     84e:	82 83       	std	Z+2, r24	; 0x02
     850:	93 83       	std	Z+3, r25	; 0x03
     852:	60 ed       	ldi	r22, 0xD0	; 208
     854:	78 e2       	ldi	r23, 0x28	; 40
     856:	c8 01       	movw	r24, r16
     858:	0e 94 ae 09 	call	0x135c	; 0x135c <strcat>
     85c:	f8 01       	movw	r30, r16
     85e:	01 90       	ld	r0, Z+
     860:	00 20       	and	r0, r0
     862:	e9 f7       	brne	.-6      	; 0x85e <print_status+0x46>
     864:	31 97       	sbiw	r30, 0x01	; 1
     866:	68 94       	set
     868:	cc 24       	eor	r12, r12
     86a:	c5 f8       	bld	r12, 5
     86c:	d1 2c       	mov	r13, r1
     86e:	c0 82       	st	Z, r12
     870:	d1 82       	std	Z+1, r13	; 0x01
     872:	f8 01       	movw	r30, r16
     874:	01 90       	ld	r0, Z+
     876:	00 20       	and	r0, r0
     878:	e9 f7       	brne	.-6      	; 0x874 <print_status+0x5c>
     87a:	31 97       	sbiw	r30, 0x01	; 1
     87c:	8e e4       	ldi	r24, 0x4E	; 78
     87e:	98 e7       	ldi	r25, 0x78	; 120
     880:	80 83       	st	Z, r24
     882:	91 83       	std	Z+1, r25	; 0x01
     884:	84 e7       	ldi	r24, 0x74	; 116
     886:	90 e0       	ldi	r25, 0x00	; 0
     888:	82 83       	std	Z+2, r24	; 0x02
     88a:	93 83       	std	Z+3, r25	; 0x03
     88c:	0f 2e       	mov	r0, r31
     88e:	f0 ed       	ldi	r31, 0xD0	; 208
     890:	ef 2e       	mov	r14, r31
     892:	f8 e2       	ldi	r31, 0x28	; 40
     894:	ff 2e       	mov	r15, r31
     896:	f0 2d       	mov	r31, r0
     898:	f7 01       	movw	r30, r14
     89a:	84 89       	ldd	r24, Z+20	; 0x14
     89c:	4a e0       	ldi	r20, 0x0A	; 10
     89e:	be 01       	movw	r22, r28
     8a0:	6f 5f       	subi	r22, 0xFF	; 255
     8a2:	7f 4f       	sbci	r23, 0xFF	; 255
     8a4:	90 e0       	ldi	r25, 0x00	; 0
     8a6:	0e 94 c0 09 	call	0x1380	; 0x1380 <__itoa_ncheck>
     8aa:	bc 01       	movw	r22, r24
     8ac:	c8 01       	movw	r24, r16
     8ae:	0e 94 ae 09 	call	0x135c	; 0x135c <strcat>
     8b2:	f8 01       	movw	r30, r16
     8b4:	01 90       	ld	r0, Z+
     8b6:	00 20       	and	r0, r0
     8b8:	e9 f7       	brne	.-6      	; 0x8b4 <print_status+0x9c>
     8ba:	31 97       	sbiw	r30, 0x01	; 1
     8bc:	c0 82       	st	Z, r12
     8be:	d1 82       	std	Z+1, r13	; 0x01
     8c0:	f8 01       	movw	r30, r16
     8c2:	01 90       	ld	r0, Z+
     8c4:	00 20       	and	r0, r0
     8c6:	e9 f7       	brne	.-6      	; 0x8c2 <print_status+0xaa>
     8c8:	31 97       	sbiw	r30, 0x01	; 1
     8ca:	82 e4       	ldi	r24, 0x42	; 66
     8cc:	9c e6       	ldi	r25, 0x6C	; 108
     8ce:	80 83       	st	Z, r24
     8d0:	91 83       	std	Z+1, r25	; 0x01
     8d2:	86 e5       	ldi	r24, 0x56	; 86
     8d4:	90 e0       	ldi	r25, 0x00	; 0
     8d6:	82 83       	std	Z+2, r24	; 0x02
     8d8:	93 83       	std	Z+3, r25	; 0x03
     8da:	f7 01       	movw	r30, r14
     8dc:	81 89       	ldd	r24, Z+17	; 0x11
     8de:	81 11       	cpse	r24, r1
     8e0:	0b c0       	rjmp	.+22     	; 0x8f8 <print_status+0xe0>
     8e2:	f8 01       	movw	r30, r16
     8e4:	01 90       	ld	r0, Z+
     8e6:	00 20       	and	r0, r0
     8e8:	e9 f7       	brne	.-6      	; 0x8e4 <print_status+0xcc>
     8ea:	31 97       	sbiw	r30, 0x01	; 1
     8ec:	84 e4       	ldi	r24, 0x44	; 68
     8ee:	90 e2       	ldi	r25, 0x20	; 32
     8f0:	80 83       	st	Z, r24
     8f2:	91 83       	std	Z+1, r25	; 0x01
     8f4:	12 82       	std	Z+2, r1	; 0x02
     8f6:	28 c0       	rjmp	.+80     	; 0x948 <print_status+0x130>
     8f8:	80 91 48 04 	lds	r24, 0x0448	; 0x800448 <__TEXT_REGION_LENGTH__+0x7f4448>
     8fc:	88 23       	and	r24, r24
     8fe:	cc f4       	brge	.+50     	; 0x932 <print_status+0x11a>
     900:	80 91 e5 28 	lds	r24, 0x28E5	; 0x8028e5 <status+0x15>
     904:	4a e0       	ldi	r20, 0x0A	; 10
     906:	be 01       	movw	r22, r28
     908:	6f 5f       	subi	r22, 0xFF	; 255
     90a:	7f 4f       	sbci	r23, 0xFF	; 255
     90c:	90 e0       	ldi	r25, 0x00	; 0
     90e:	0e 94 c0 09 	call	0x1380	; 0x1380 <__itoa_ncheck>
     912:	bc 01       	movw	r22, r24
     914:	89 e6       	ldi	r24, 0x69	; 105
     916:	98 e2       	ldi	r25, 0x28	; 40
     918:	0e 94 ae 09 	call	0x135c	; 0x135c <strcat>
     91c:	e9 e6       	ldi	r30, 0x69	; 105
     91e:	f8 e2       	ldi	r31, 0x28	; 40
     920:	01 90       	ld	r0, Z+
     922:	00 20       	and	r0, r0
     924:	e9 f7       	brne	.-6      	; 0x920 <print_status+0x108>
     926:	31 97       	sbiw	r30, 0x01	; 1
     928:	80 e2       	ldi	r24, 0x20	; 32
     92a:	90 e0       	ldi	r25, 0x00	; 0
     92c:	80 83       	st	Z, r24
     92e:	91 83       	std	Z+1, r25	; 0x01
     930:	0b c0       	rjmp	.+22     	; 0x948 <print_status+0x130>
     932:	e9 e6       	ldi	r30, 0x69	; 105
     934:	f8 e2       	ldi	r31, 0x28	; 40
     936:	01 90       	ld	r0, Z+
     938:	00 20       	and	r0, r0
     93a:	e9 f7       	brne	.-6      	; 0x936 <print_status+0x11e>
     93c:	31 97       	sbiw	r30, 0x01	; 1
     93e:	83 e4       	ldi	r24, 0x43	; 67
     940:	90 e2       	ldi	r25, 0x20	; 32
     942:	80 83       	st	Z, r24
     944:	91 83       	std	Z+1, r25	; 0x01
     946:	12 82       	std	Z+2, r1	; 0x02
     948:	e9 e6       	ldi	r30, 0x69	; 105
     94a:	f8 e2       	ldi	r31, 0x28	; 40
     94c:	01 90       	ld	r0, Z+
     94e:	00 20       	and	r0, r0
     950:	e9 f7       	brne	.-6      	; 0x94c <print_status+0x134>
     952:	31 97       	sbiw	r30, 0x01	; 1
     954:	82 e5       	ldi	r24, 0x52	; 82
     956:	94 e6       	ldi	r25, 0x64	; 100
     958:	80 83       	st	Z, r24
     95a:	91 83       	std	Z+1, r25	; 0x01
     95c:	86 e5       	ldi	r24, 0x56	; 86
     95e:	90 e0       	ldi	r25, 0x00	; 0
     960:	82 83       	std	Z+2, r24	; 0x02
     962:	93 83       	std	Z+3, r25	; 0x03
     964:	80 91 e2 28 	lds	r24, 0x28E2	; 0x8028e2 <status+0x12>
     968:	81 11       	cpse	r24, r1
     96a:	0c c0       	rjmp	.+24     	; 0x984 <print_status+0x16c>
     96c:	e9 e6       	ldi	r30, 0x69	; 105
     96e:	f8 e2       	ldi	r31, 0x28	; 40
     970:	01 90       	ld	r0, Z+
     972:	00 20       	and	r0, r0
     974:	e9 f7       	brne	.-6      	; 0x970 <print_status+0x158>
     976:	31 97       	sbiw	r30, 0x01	; 1
     978:	84 e4       	ldi	r24, 0x44	; 68
     97a:	90 e2       	ldi	r25, 0x20	; 32
     97c:	80 83       	st	Z, r24
     97e:	91 83       	std	Z+1, r25	; 0x01
     980:	12 82       	std	Z+2, r1	; 0x02
     982:	28 c0       	rjmp	.+80     	; 0x9d4 <print_status+0x1bc>
     984:	80 91 48 04 	lds	r24, 0x0448	; 0x800448 <__TEXT_REGION_LENGTH__+0x7f4448>
     988:	86 ff       	sbrs	r24, 6
     98a:	19 c0       	rjmp	.+50     	; 0x9be <print_status+0x1a6>
     98c:	80 91 e6 28 	lds	r24, 0x28E6	; 0x8028e6 <status+0x16>
     990:	4a e0       	ldi	r20, 0x0A	; 10
     992:	be 01       	movw	r22, r28
     994:	6f 5f       	subi	r22, 0xFF	; 255
     996:	7f 4f       	sbci	r23, 0xFF	; 255
     998:	90 e0       	ldi	r25, 0x00	; 0
     99a:	0e 94 c0 09 	call	0x1380	; 0x1380 <__itoa_ncheck>
     99e:	bc 01       	movw	r22, r24
     9a0:	89 e6       	ldi	r24, 0x69	; 105
     9a2:	98 e2       	ldi	r25, 0x28	; 40
     9a4:	0e 94 ae 09 	call	0x135c	; 0x135c <strcat>
     9a8:	e9 e6       	ldi	r30, 0x69	; 105
     9aa:	f8 e2       	ldi	r31, 0x28	; 40
     9ac:	01 90       	ld	r0, Z+
     9ae:	00 20       	and	r0, r0
     9b0:	e9 f7       	brne	.-6      	; 0x9ac <print_status+0x194>
     9b2:	31 97       	sbiw	r30, 0x01	; 1
     9b4:	80 e2       	ldi	r24, 0x20	; 32
     9b6:	90 e0       	ldi	r25, 0x00	; 0
     9b8:	80 83       	st	Z, r24
     9ba:	91 83       	std	Z+1, r25	; 0x01
     9bc:	0b c0       	rjmp	.+22     	; 0x9d4 <print_status+0x1bc>
     9be:	e9 e6       	ldi	r30, 0x69	; 105
     9c0:	f8 e2       	ldi	r31, 0x28	; 40
     9c2:	01 90       	ld	r0, Z+
     9c4:	00 20       	and	r0, r0
     9c6:	e9 f7       	brne	.-6      	; 0x9c2 <print_status+0x1aa>
     9c8:	31 97       	sbiw	r30, 0x01	; 1
     9ca:	83 e4       	ldi	r24, 0x43	; 67
     9cc:	90 e2       	ldi	r25, 0x20	; 32
     9ce:	80 83       	st	Z, r24
     9d0:	91 83       	std	Z+1, r25	; 0x01
     9d2:	12 82       	std	Z+2, r1	; 0x02
     9d4:	e9 e6       	ldi	r30, 0x69	; 105
     9d6:	f8 e2       	ldi	r31, 0x28	; 40
     9d8:	01 90       	ld	r0, Z+
     9da:	00 20       	and	r0, r0
     9dc:	e9 f7       	brne	.-6      	; 0x9d8 <print_status+0x1c0>
     9de:	31 97       	sbiw	r30, 0x01	; 1
     9e0:	82 e4       	ldi	r24, 0x42	; 66
     9e2:	95 e7       	ldi	r25, 0x75	; 117
     9e4:	80 83       	st	Z, r24
     9e6:	91 83       	std	Z+1, r25	; 0x01
     9e8:	86 e5       	ldi	r24, 0x56	; 86
     9ea:	90 e0       	ldi	r25, 0x00	; 0
     9ec:	82 83       	std	Z+2, r24	; 0x02
     9ee:	93 83       	std	Z+3, r25	; 0x03
     9f0:	80 91 48 04 	lds	r24, 0x0448	; 0x800448 <__TEXT_REGION_LENGTH__+0x7f4448>
     9f4:	85 ff       	sbrs	r24, 5
     9f6:	19 c0       	rjmp	.+50     	; 0xa2a <print_status+0x212>
     9f8:	80 91 e7 28 	lds	r24, 0x28E7	; 0x8028e7 <status+0x17>
     9fc:	4a e0       	ldi	r20, 0x0A	; 10
     9fe:	be 01       	movw	r22, r28
     a00:	6f 5f       	subi	r22, 0xFF	; 255
     a02:	7f 4f       	sbci	r23, 0xFF	; 255
     a04:	90 e0       	ldi	r25, 0x00	; 0
     a06:	0e 94 c0 09 	call	0x1380	; 0x1380 <__itoa_ncheck>
     a0a:	bc 01       	movw	r22, r24
     a0c:	89 e6       	ldi	r24, 0x69	; 105
     a0e:	98 e2       	ldi	r25, 0x28	; 40
     a10:	0e 94 ae 09 	call	0x135c	; 0x135c <strcat>
     a14:	e9 e6       	ldi	r30, 0x69	; 105
     a16:	f8 e2       	ldi	r31, 0x28	; 40
     a18:	01 90       	ld	r0, Z+
     a1a:	00 20       	and	r0, r0
     a1c:	e9 f7       	brne	.-6      	; 0xa18 <print_status+0x200>
     a1e:	31 97       	sbiw	r30, 0x01	; 1
     a20:	80 e2       	ldi	r24, 0x20	; 32
     a22:	90 e0       	ldi	r25, 0x00	; 0
     a24:	80 83       	st	Z, r24
     a26:	91 83       	std	Z+1, r25	; 0x01
     a28:	0b c0       	rjmp	.+22     	; 0xa40 <print_status+0x228>
     a2a:	e9 e6       	ldi	r30, 0x69	; 105
     a2c:	f8 e2       	ldi	r31, 0x28	; 40
     a2e:	01 90       	ld	r0, Z+
     a30:	00 20       	and	r0, r0
     a32:	e9 f7       	brne	.-6      	; 0xa2e <print_status+0x216>
     a34:	31 97       	sbiw	r30, 0x01	; 1
     a36:	83 e4       	ldi	r24, 0x43	; 67
     a38:	90 e2       	ldi	r25, 0x20	; 32
     a3a:	80 83       	st	Z, r24
     a3c:	91 83       	std	Z+1, r25	; 0x01
     a3e:	12 82       	std	Z+2, r1	; 0x02
     a40:	e9 e6       	ldi	r30, 0x69	; 105
     a42:	f8 e2       	ldi	r31, 0x28	; 40
     a44:	01 90       	ld	r0, Z+
     a46:	00 20       	and	r0, r0
     a48:	e9 f7       	brne	.-6      	; 0xa44 <print_status+0x22c>
     a4a:	31 97       	sbiw	r30, 0x01	; 1
     a4c:	83 e5       	ldi	r24, 0x53	; 83
     a4e:	95 e7       	ldi	r25, 0x75	; 117
     a50:	80 83       	st	Z, r24
     a52:	91 83       	std	Z+1, r25	; 0x01
     a54:	86 e5       	ldi	r24, 0x56	; 86
     a56:	90 e0       	ldi	r25, 0x00	; 0
     a58:	82 83       	std	Z+2, r24	; 0x02
     a5a:	93 83       	std	Z+3, r25	; 0x03
     a5c:	80 91 48 04 	lds	r24, 0x0448	; 0x800448 <__TEXT_REGION_LENGTH__+0x7f4448>
     a60:	84 ff       	sbrs	r24, 4
     a62:	19 c0       	rjmp	.+50     	; 0xa96 <print_status+0x27e>
     a64:	80 91 e8 28 	lds	r24, 0x28E8	; 0x8028e8 <status+0x18>
     a68:	4a e0       	ldi	r20, 0x0A	; 10
     a6a:	be 01       	movw	r22, r28
     a6c:	6f 5f       	subi	r22, 0xFF	; 255
     a6e:	7f 4f       	sbci	r23, 0xFF	; 255
     a70:	90 e0       	ldi	r25, 0x00	; 0
     a72:	0e 94 c0 09 	call	0x1380	; 0x1380 <__itoa_ncheck>
     a76:	bc 01       	movw	r22, r24
     a78:	89 e6       	ldi	r24, 0x69	; 105
     a7a:	98 e2       	ldi	r25, 0x28	; 40
     a7c:	0e 94 ae 09 	call	0x135c	; 0x135c <strcat>
     a80:	e9 e6       	ldi	r30, 0x69	; 105
     a82:	f8 e2       	ldi	r31, 0x28	; 40
     a84:	01 90       	ld	r0, Z+
     a86:	00 20       	and	r0, r0
     a88:	e9 f7       	brne	.-6      	; 0xa84 <print_status+0x26c>
     a8a:	31 97       	sbiw	r30, 0x01	; 1
     a8c:	80 e2       	ldi	r24, 0x20	; 32
     a8e:	90 e0       	ldi	r25, 0x00	; 0
     a90:	80 83       	st	Z, r24
     a92:	91 83       	std	Z+1, r25	; 0x01
     a94:	0b c0       	rjmp	.+22     	; 0xaac <print_status+0x294>
     a96:	e9 e6       	ldi	r30, 0x69	; 105
     a98:	f8 e2       	ldi	r31, 0x28	; 40
     a9a:	01 90       	ld	r0, Z+
     a9c:	00 20       	and	r0, r0
     a9e:	e9 f7       	brne	.-6      	; 0xa9a <print_status+0x282>
     aa0:	31 97       	sbiw	r30, 0x01	; 1
     aa2:	83 e4       	ldi	r24, 0x43	; 67
     aa4:	90 e2       	ldi	r25, 0x20	; 32
     aa6:	80 83       	st	Z, r24
     aa8:	91 83       	std	Z+1, r25	; 0x01
     aaa:	12 82       	std	Z+2, r1	; 0x02
     aac:	e9 e6       	ldi	r30, 0x69	; 105
     aae:	f8 e2       	ldi	r31, 0x28	; 40
     ab0:	01 90       	ld	r0, Z+
     ab2:	00 20       	and	r0, r0
     ab4:	e9 f7       	brne	.-6      	; 0xab0 <print_status+0x298>
     ab6:	31 97       	sbiw	r30, 0x01	; 1
     ab8:	82 e4       	ldi	r24, 0x42	; 66
     aba:	9c e6       	ldi	r25, 0x6C	; 108
     abc:	80 83       	st	Z, r24
     abe:	91 83       	std	Z+1, r25	; 0x01
     ac0:	84 e5       	ldi	r24, 0x54	; 84
     ac2:	90 e0       	ldi	r25, 0x00	; 0
     ac4:	82 83       	std	Z+2, r24	; 0x02
     ac6:	93 83       	std	Z+3, r25	; 0x03
     ac8:	80 91 88 04 	lds	r24, 0x0488	; 0x800488 <__TEXT_REGION_LENGTH__+0x7f4488>
     acc:	80 ff       	sbrs	r24, 0
     ace:	0c c0       	rjmp	.+24     	; 0xae8 <print_status+0x2d0>
     ad0:	e9 e6       	ldi	r30, 0x69	; 105
     ad2:	f8 e2       	ldi	r31, 0x28	; 40
     ad4:	01 90       	ld	r0, Z+
     ad6:	00 20       	and	r0, r0
     ad8:	e9 f7       	brne	.-6      	; 0xad4 <print_status+0x2bc>
     ada:	31 97       	sbiw	r30, 0x01	; 1
     adc:	87 e5       	ldi	r24, 0x57	; 87
     ade:	90 e2       	ldi	r25, 0x20	; 32
     ae0:	80 83       	st	Z, r24
     ae2:	91 83       	std	Z+1, r25	; 0x01
     ae4:	12 82       	std	Z+2, r1	; 0x02
     ae6:	0b c0       	rjmp	.+22     	; 0xafe <print_status+0x2e6>
     ae8:	e9 e6       	ldi	r30, 0x69	; 105
     aea:	f8 e2       	ldi	r31, 0x28	; 40
     aec:	01 90       	ld	r0, Z+
     aee:	00 20       	and	r0, r0
     af0:	e9 f7       	brne	.-6      	; 0xaec <print_status+0x2d4>
     af2:	31 97       	sbiw	r30, 0x01	; 1
     af4:	83 e4       	ldi	r24, 0x43	; 67
     af6:	90 e2       	ldi	r25, 0x20	; 32
     af8:	80 83       	st	Z, r24
     afa:	91 83       	std	Z+1, r25	; 0x01
     afc:	12 82       	std	Z+2, r1	; 0x02
     afe:	e9 e6       	ldi	r30, 0x69	; 105
     b00:	f8 e2       	ldi	r31, 0x28	; 40
     b02:	01 90       	ld	r0, Z+
     b04:	00 20       	and	r0, r0
     b06:	e9 f7       	brne	.-6      	; 0xb02 <print_status+0x2ea>
     b08:	31 97       	sbiw	r30, 0x01	; 1
     b0a:	82 e5       	ldi	r24, 0x52	; 82
     b0c:	94 e6       	ldi	r25, 0x64	; 100
     b0e:	80 83       	st	Z, r24
     b10:	91 83       	std	Z+1, r25	; 0x01
     b12:	84 e5       	ldi	r24, 0x54	; 84
     b14:	90 e0       	ldi	r25, 0x00	; 0
     b16:	82 83       	std	Z+2, r24	; 0x02
     b18:	93 83       	std	Z+3, r25	; 0x03
     b1a:	80 91 88 04 	lds	r24, 0x0488	; 0x800488 <__TEXT_REGION_LENGTH__+0x7f4488>
     b1e:	81 ff       	sbrs	r24, 1
     b20:	0c c0       	rjmp	.+24     	; 0xb3a <print_status+0x322>
     b22:	e9 e6       	ldi	r30, 0x69	; 105
     b24:	f8 e2       	ldi	r31, 0x28	; 40
     b26:	01 90       	ld	r0, Z+
     b28:	00 20       	and	r0, r0
     b2a:	e9 f7       	brne	.-6      	; 0xb26 <print_status+0x30e>
     b2c:	31 97       	sbiw	r30, 0x01	; 1
     b2e:	87 e5       	ldi	r24, 0x57	; 87
     b30:	90 e2       	ldi	r25, 0x20	; 32
     b32:	80 83       	st	Z, r24
     b34:	91 83       	std	Z+1, r25	; 0x01
     b36:	12 82       	std	Z+2, r1	; 0x02
     b38:	0b c0       	rjmp	.+22     	; 0xb50 <print_status+0x338>
     b3a:	e9 e6       	ldi	r30, 0x69	; 105
     b3c:	f8 e2       	ldi	r31, 0x28	; 40
     b3e:	01 90       	ld	r0, Z+
     b40:	00 20       	and	r0, r0
     b42:	e9 f7       	brne	.-6      	; 0xb3e <print_status+0x326>
     b44:	31 97       	sbiw	r30, 0x01	; 1
     b46:	83 e4       	ldi	r24, 0x43	; 67
     b48:	90 e2       	ldi	r25, 0x20	; 32
     b4a:	80 83       	st	Z, r24
     b4c:	91 83       	std	Z+1, r25	; 0x01
     b4e:	12 82       	std	Z+2, r1	; 0x02
     b50:	e9 e6       	ldi	r30, 0x69	; 105
     b52:	f8 e2       	ldi	r31, 0x28	; 40
     b54:	01 90       	ld	r0, Z+
     b56:	00 20       	and	r0, r0
     b58:	e9 f7       	brne	.-6      	; 0xb54 <print_status+0x33c>
     b5a:	31 97       	sbiw	r30, 0x01	; 1
     b5c:	82 e4       	ldi	r24, 0x42	; 66
     b5e:	95 e7       	ldi	r25, 0x75	; 117
     b60:	80 83       	st	Z, r24
     b62:	91 83       	std	Z+1, r25	; 0x01
     b64:	84 e5       	ldi	r24, 0x54	; 84
     b66:	90 e0       	ldi	r25, 0x00	; 0
     b68:	82 83       	std	Z+2, r24	; 0x02
     b6a:	93 83       	std	Z+3, r25	; 0x03
     b6c:	80 91 88 04 	lds	r24, 0x0488	; 0x800488 <__TEXT_REGION_LENGTH__+0x7f4488>
     b70:	82 ff       	sbrs	r24, 2
     b72:	0c c0       	rjmp	.+24     	; 0xb8c <print_status+0x374>
     b74:	e9 e6       	ldi	r30, 0x69	; 105
     b76:	f8 e2       	ldi	r31, 0x28	; 40
     b78:	01 90       	ld	r0, Z+
     b7a:	00 20       	and	r0, r0
     b7c:	e9 f7       	brne	.-6      	; 0xb78 <print_status+0x360>
     b7e:	31 97       	sbiw	r30, 0x01	; 1
     b80:	87 e5       	ldi	r24, 0x57	; 87
     b82:	90 e2       	ldi	r25, 0x20	; 32
     b84:	80 83       	st	Z, r24
     b86:	91 83       	std	Z+1, r25	; 0x01
     b88:	12 82       	std	Z+2, r1	; 0x02
     b8a:	0b c0       	rjmp	.+22     	; 0xba2 <print_status+0x38a>
     b8c:	e9 e6       	ldi	r30, 0x69	; 105
     b8e:	f8 e2       	ldi	r31, 0x28	; 40
     b90:	01 90       	ld	r0, Z+
     b92:	00 20       	and	r0, r0
     b94:	e9 f7       	brne	.-6      	; 0xb90 <print_status+0x378>
     b96:	31 97       	sbiw	r30, 0x01	; 1
     b98:	83 e4       	ldi	r24, 0x43	; 67
     b9a:	90 e2       	ldi	r25, 0x20	; 32
     b9c:	80 83       	st	Z, r24
     b9e:	91 83       	std	Z+1, r25	; 0x01
     ba0:	12 82       	std	Z+2, r1	; 0x02
     ba2:	09 e6       	ldi	r16, 0x69	; 105
     ba4:	18 e2       	ldi	r17, 0x28	; 40
     ba6:	f8 01       	movw	r30, r16
     ba8:	01 90       	ld	r0, Z+
     baa:	00 20       	and	r0, r0
     bac:	e9 f7       	brne	.-6      	; 0xba8 <print_status+0x390>
     bae:	31 97       	sbiw	r30, 0x01	; 1
     bb0:	89 e4       	ldi	r24, 0x49	; 73
     bb2:	9e e6       	ldi	r25, 0x6E	; 110
     bb4:	80 83       	st	Z, r24
     bb6:	91 83       	std	Z+1, r25	; 0x01
     bb8:	84 e7       	ldi	r24, 0x74	; 116
     bba:	90 e0       	ldi	r25, 0x00	; 0
     bbc:	82 83       	std	Z+2, r24	; 0x02
     bbe:	93 83       	std	Z+3, r25	; 0x03
     bc0:	0f 2e       	mov	r0, r31
     bc2:	f0 ed       	ldi	r31, 0xD0	; 208
     bc4:	cf 2e       	mov	r12, r31
     bc6:	f8 e2       	ldi	r31, 0x28	; 40
     bc8:	df 2e       	mov	r13, r31
     bca:	f0 2d       	mov	r31, r0
     bcc:	f6 01       	movw	r30, r12
     bce:	83 89       	ldd	r24, Z+19	; 0x13
     bd0:	4a e0       	ldi	r20, 0x0A	; 10
     bd2:	be 01       	movw	r22, r28
     bd4:	6f 5f       	subi	r22, 0xFF	; 255
     bd6:	7f 4f       	sbci	r23, 0xFF	; 255
     bd8:	90 e0       	ldi	r25, 0x00	; 0
     bda:	0e 94 c0 09 	call	0x1380	; 0x1380 <__itoa_ncheck>
     bde:	bc 01       	movw	r22, r24
     be0:	c8 01       	movw	r24, r16
     be2:	0e 94 ae 09 	call	0x135c	; 0x135c <strcat>
     be6:	f8 01       	movw	r30, r16
     be8:	01 90       	ld	r0, Z+
     bea:	00 20       	and	r0, r0
     bec:	e9 f7       	brne	.-6      	; 0xbe8 <print_status+0x3d0>
     bee:	31 97       	sbiw	r30, 0x01	; 1
     bf0:	68 94       	set
     bf2:	ee 24       	eor	r14, r14
     bf4:	e5 f8       	bld	r14, 5
     bf6:	f1 2c       	mov	r15, r1
     bf8:	e0 82       	st	Z, r14
     bfa:	f1 82       	std	Z+1, r15	; 0x01
     bfc:	f8 01       	movw	r30, r16
     bfe:	01 90       	ld	r0, Z+
     c00:	00 20       	and	r0, r0
     c02:	e9 f7       	brne	.-6      	; 0xbfe <print_status+0x3e6>
     c04:	31 97       	sbiw	r30, 0x01	; 1
     c06:	8d e4       	ldi	r24, 0x4D	; 77
     c08:	91 e6       	ldi	r25, 0x61	; 97
     c0a:	80 83       	st	Z, r24
     c0c:	91 83       	std	Z+1, r25	; 0x01
     c0e:	88 e7       	ldi	r24, 0x78	; 120
     c10:	90 e0       	ldi	r25, 0x00	; 0
     c12:	82 83       	std	Z+2, r24	; 0x02
     c14:	93 83       	std	Z+3, r25	; 0x03
     c16:	f6 01       	movw	r30, r12
     c18:	81 8d       	ldd	r24, Z+25	; 0x19
     c1a:	4a e0       	ldi	r20, 0x0A	; 10
     c1c:	be 01       	movw	r22, r28
     c1e:	6f 5f       	subi	r22, 0xFF	; 255
     c20:	7f 4f       	sbci	r23, 0xFF	; 255
     c22:	90 e0       	ldi	r25, 0x00	; 0
     c24:	0e 94 c0 09 	call	0x1380	; 0x1380 <__itoa_ncheck>
     c28:	bc 01       	movw	r22, r24
     c2a:	c8 01       	movw	r24, r16
     c2c:	0e 94 ae 09 	call	0x135c	; 0x135c <strcat>
     c30:	f8 01       	movw	r30, r16
     c32:	01 90       	ld	r0, Z+
     c34:	00 20       	and	r0, r0
     c36:	e9 f7       	brne	.-6      	; 0xc32 <print_status+0x41a>
     c38:	31 97       	sbiw	r30, 0x01	; 1
     c3a:	e0 82       	st	Z, r14
     c3c:	f1 82       	std	Z+1, r15	; 0x01
     c3e:	80 91 08 06 	lds	r24, 0x0608	; 0x800608 <__TEXT_REGION_LENGTH__+0x7f4608>
     c42:	80 ff       	sbrs	r24, 0
     c44:	06 c0       	rjmp	.+12     	; 0xc52 <print_status+0x43a>
     c46:	e8 e0       	ldi	r30, 0x08	; 8
     c48:	f6 e0       	ldi	r31, 0x06	; 6
     c4a:	00 00       	nop
     c4c:	80 81       	ld	r24, Z
     c4e:	80 fd       	sbrc	r24, 0
     c50:	fc cf       	rjmp	.-8      	; 0xc4a <print_status+0x432>
     c52:	80 91 10 06 	lds	r24, 0x0610	; 0x800610 <__TEXT_REGION_LENGTH__+0x7f4610>
     c56:	90 91 11 06 	lds	r25, 0x0611	; 0x800611 <__TEXT_REGION_LENGTH__+0x7f4611>
     c5a:	80 93 ed 28 	sts	0x28ED, r24	; 0x8028ed <status+0x1d>
     c5e:	09 e6       	ldi	r16, 0x69	; 105
     c60:	18 e2       	ldi	r17, 0x28	; 40
     c62:	f8 01       	movw	r30, r16
     c64:	01 90       	ld	r0, Z+
     c66:	00 20       	and	r0, r0
     c68:	e9 f7       	brne	.-6      	; 0xc64 <print_status+0x44c>
     c6a:	31 97       	sbiw	r30, 0x01	; 1
     c6c:	20 e5       	ldi	r18, 0x50	; 80
     c6e:	33 e7       	ldi	r19, 0x73	; 115
     c70:	20 83       	st	Z, r18
     c72:	31 83       	std	Z+1, r19	; 0x01
     c74:	29 e6       	ldi	r18, 0x69	; 105
     c76:	30 e0       	ldi	r19, 0x00	; 0
     c78:	22 83       	std	Z+2, r18	; 0x02
     c7a:	33 83       	std	Z+3, r19	; 0x03
     c7c:	4a e0       	ldi	r20, 0x0A	; 10
     c7e:	be 01       	movw	r22, r28
     c80:	6f 5f       	subi	r22, 0xFF	; 255
     c82:	7f 4f       	sbci	r23, 0xFF	; 255
     c84:	90 e0       	ldi	r25, 0x00	; 0
     c86:	0e 94 c0 09 	call	0x1380	; 0x1380 <__itoa_ncheck>
     c8a:	bc 01       	movw	r22, r24
     c8c:	c8 01       	movw	r24, r16
     c8e:	0e 94 ae 09 	call	0x135c	; 0x135c <strcat>
     c92:	f8 01       	movw	r30, r16
     c94:	01 90       	ld	r0, Z+
     c96:	00 20       	and	r0, r0
     c98:	e9 f7       	brne	.-6      	; 0xc94 <print_status+0x47c>
     c9a:	31 97       	sbiw	r30, 0x01	; 1
     c9c:	8d e0       	ldi	r24, 0x0D	; 13
     c9e:	9a e0       	ldi	r25, 0x0A	; 10
     ca0:	80 83       	st	Z, r24
     ca2:	91 83       	std	Z+1, r25	; 0x01
     ca4:	12 82       	std	Z+2, r1	; 0x02
     ca6:	f8 01       	movw	r30, r16
     ca8:	01 90       	ld	r0, Z+
     caa:	00 20       	and	r0, r0
     cac:	e9 f7       	brne	.-6      	; 0xca8 <print_status+0x490>
     cae:	31 97       	sbiw	r30, 0x01	; 1
     cb0:	8f 01       	movw	r16, r30
     cb2:	09 56       	subi	r16, 0x69	; 105
     cb4:	18 42       	sbci	r17, 0x28	; 40
     cb6:	00 93 cd 28 	sts	0x28CD, r16	; 0x8028cd <send_buf+0x64>
     cba:	0e 94 8d 03 	call	0x71a	; 0x71a <send_serial>
     cbe:	64 96       	adiw	r28, 0x14	; 20
     cc0:	cd bf       	out	0x3d, r28	; 61
     cc2:	de bf       	out	0x3e, r29	; 62
     cc4:	df 91       	pop	r29
     cc6:	cf 91       	pop	r28
     cc8:	1f 91       	pop	r17
     cca:	0f 91       	pop	r16
     ccc:	ff 90       	pop	r15
     cce:	ef 90       	pop	r14
     cd0:	df 90       	pop	r13
     cd2:	cf 90       	pop	r12
     cd4:	08 95       	ret

00000cd6 <handle_serial>:
     cd6:	cf 93       	push	r28
     cd8:	df 93       	push	r29
     cda:	80 91 01 28 	lds	r24, 0x2801	; 0x802801 <recv_buf>
     cde:	85 36       	cpi	r24, 0x65	; 101
     ce0:	09 f4       	brne	.+2      	; 0xce4 <handle_serial+0xe>
     ce2:	58 c0       	rjmp	.+176    	; 0xd94 <handle_serial+0xbe>
     ce4:	38 f4       	brcc	.+14     	; 0xcf4 <handle_serial+0x1e>
     ce6:	83 36       	cpi	r24, 0x63	; 99
     ce8:	79 f0       	breq	.+30     	; 0xd08 <handle_serial+0x32>
     cea:	c8 f5       	brcc	.+114    	; 0xd5e <handle_serial+0x88>
     cec:	88 23       	and	r24, r24
     cee:	09 f4       	brne	.+2      	; 0xcf2 <handle_serial+0x1c>
     cf0:	60 c0       	rjmp	.+192    	; 0xdb2 <handle_serial+0xdc>
     cf2:	32 c1       	rjmp	.+612    	; 0xf58 <handle_serial+0x282>
     cf4:	83 37       	cpi	r24, 0x73	; 115
     cf6:	09 f4       	brne	.+2      	; 0xcfa <handle_serial+0x24>
     cf8:	97 c0       	rjmp	.+302    	; 0xe28 <handle_serial+0x152>
     cfa:	87 37       	cpi	r24, 0x77	; 119
     cfc:	09 f4       	brne	.+2      	; 0xd00 <handle_serial+0x2a>
     cfe:	97 c0       	rjmp	.+302    	; 0xe2e <handle_serial+0x158>
     d00:	8f 36       	cpi	r24, 0x6F	; 111
     d02:	09 f0       	breq	.+2      	; 0xd06 <handle_serial+0x30>
     d04:	29 c1       	rjmp	.+594    	; 0xf58 <handle_serial+0x282>
     d06:	5b c0       	rjmp	.+182    	; 0xdbe <handle_serial+0xe8>
     d08:	80 91 02 28 	lds	r24, 0x2802	; 0x802802 <recv_buf+0x1>
     d0c:	82 36       	cpi	r24, 0x62	; 98
     d0e:	41 f4       	brne	.+16     	; 0xd20 <handle_serial+0x4a>
     d10:	e0 e4       	ldi	r30, 0x40	; 64
     d12:	f4 e0       	ldi	r31, 0x04	; 4
     d14:	86 81       	ldd	r24, Z+6	; 0x06
     d16:	80 68       	ori	r24, 0x80	; 128
     d18:	86 83       	std	Z+6, r24	; 0x06
     d1a:	10 92 e5 28 	sts	0x28E5, r1	; 0x8028e5 <status+0x15>
     d1e:	17 c1       	rjmp	.+558    	; 0xf4e <handle_serial+0x278>
     d20:	82 37       	cpi	r24, 0x72	; 114
     d22:	41 f4       	brne	.+16     	; 0xd34 <handle_serial+0x5e>
     d24:	e0 e4       	ldi	r30, 0x40	; 64
     d26:	f4 e0       	ldi	r31, 0x04	; 4
     d28:	86 81       	ldd	r24, Z+6	; 0x06
     d2a:	80 64       	ori	r24, 0x40	; 64
     d2c:	86 83       	std	Z+6, r24	; 0x06
     d2e:	10 92 e6 28 	sts	0x28E6, r1	; 0x8028e6 <status+0x16>
     d32:	0d c1       	rjmp	.+538    	; 0xf4e <handle_serial+0x278>
     d34:	82 34       	cpi	r24, 0x42	; 66
     d36:	41 f4       	brne	.+16     	; 0xd48 <handle_serial+0x72>
     d38:	e0 e4       	ldi	r30, 0x40	; 64
     d3a:	f4 e0       	ldi	r31, 0x04	; 4
     d3c:	86 81       	ldd	r24, Z+6	; 0x06
     d3e:	80 62       	ori	r24, 0x20	; 32
     d40:	86 83       	std	Z+6, r24	; 0x06
     d42:	10 92 e7 28 	sts	0x28E7, r1	; 0x8028e7 <status+0x17>
     d46:	03 c1       	rjmp	.+518    	; 0xf4e <handle_serial+0x278>
     d48:	83 37       	cpi	r24, 0x73	; 115
     d4a:	09 f0       	breq	.+2      	; 0xd4e <handle_serial+0x78>
     d4c:	05 c1       	rjmp	.+522    	; 0xf58 <handle_serial+0x282>
     d4e:	e0 e4       	ldi	r30, 0x40	; 64
     d50:	f4 e0       	ldi	r31, 0x04	; 4
     d52:	86 81       	ldd	r24, Z+6	; 0x06
     d54:	80 61       	ori	r24, 0x10	; 16
     d56:	86 83       	std	Z+6, r24	; 0x06
     d58:	10 92 e8 28 	sts	0x28E8, r1	; 0x8028e8 <status+0x18>
     d5c:	f8 c0       	rjmp	.+496    	; 0xf4e <handle_serial+0x278>
     d5e:	80 91 02 28 	lds	r24, 0x2802	; 0x802802 <recv_buf+0x1>
     d62:	82 36       	cpi	r24, 0x62	; 98
     d64:	51 f4       	brne	.+20     	; 0xd7a <handle_serial+0xa4>
     d66:	e0 e4       	ldi	r30, 0x40	; 64
     d68:	f4 e0       	ldi	r31, 0x04	; 4
     d6a:	86 81       	ldd	r24, Z+6	; 0x06
     d6c:	80 68       	ori	r24, 0x80	; 128
     d6e:	86 83       	std	Z+6, r24	; 0x06
     d70:	e0 ed       	ldi	r30, 0xD0	; 208
     d72:	f8 e2       	ldi	r31, 0x28	; 40
     d74:	15 8a       	std	Z+21, r1	; 0x15
     d76:	11 8a       	std	Z+17, r1	; 0x11
     d78:	ea c0       	rjmp	.+468    	; 0xf4e <handle_serial+0x278>
     d7a:	82 37       	cpi	r24, 0x72	; 114
     d7c:	09 f0       	breq	.+2      	; 0xd80 <handle_serial+0xaa>
     d7e:	ec c0       	rjmp	.+472    	; 0xf58 <handle_serial+0x282>
     d80:	e0 e4       	ldi	r30, 0x40	; 64
     d82:	f4 e0       	ldi	r31, 0x04	; 4
     d84:	86 81       	ldd	r24, Z+6	; 0x06
     d86:	80 64       	ori	r24, 0x40	; 64
     d88:	86 83       	std	Z+6, r24	; 0x06
     d8a:	e0 ed       	ldi	r30, 0xD0	; 208
     d8c:	f8 e2       	ldi	r31, 0x28	; 40
     d8e:	16 8a       	std	Z+22, r1	; 0x16
     d90:	12 8a       	std	Z+18, r1	; 0x12
     d92:	dd c0       	rjmp	.+442    	; 0xf4e <handle_serial+0x278>
     d94:	80 91 02 28 	lds	r24, 0x2802	; 0x802802 <recv_buf+0x1>
     d98:	82 36       	cpi	r24, 0x62	; 98
     d9a:	21 f4       	brne	.+8      	; 0xda4 <handle_serial+0xce>
     d9c:	81 e0       	ldi	r24, 0x01	; 1
     d9e:	80 93 e1 28 	sts	0x28E1, r24	; 0x8028e1 <status+0x11>
     da2:	d5 c0       	rjmp	.+426    	; 0xf4e <handle_serial+0x278>
     da4:	82 37       	cpi	r24, 0x72	; 114
     da6:	09 f0       	breq	.+2      	; 0xdaa <handle_serial+0xd4>
     da8:	d7 c0       	rjmp	.+430    	; 0xf58 <handle_serial+0x282>
     daa:	81 e0       	ldi	r24, 0x01	; 1
     dac:	80 93 e2 28 	sts	0x28E2, r24	; 0x8028e2 <status+0x12>
     db0:	ce c0       	rjmp	.+412    	; 0xf4e <handle_serial+0x278>
     db2:	80 91 ce 28 	lds	r24, 0x28CE	; 0x8028ce <send_buf+0x65>
     db6:	88 23       	and	r24, r24
     db8:	09 f4       	brne	.+2      	; 0xdbc <handle_serial+0xe6>
     dba:	a0 c0       	rjmp	.+320    	; 0xefc <handle_serial+0x226>
     dbc:	ac c0       	rjmp	.+344    	; 0xf16 <handle_serial+0x240>
     dbe:	80 91 02 28 	lds	r24, 0x2802	; 0x802802 <recv_buf+0x1>
     dc2:	82 36       	cpi	r24, 0x62	; 98
     dc4:	69 f4       	brne	.+26     	; 0xde0 <handle_serial+0x10a>
     dc6:	80 91 e1 28 	lds	r24, 0x28E1	; 0x8028e1 <status+0x11>
     dca:	88 23       	and	r24, r24
     dcc:	09 f4       	brne	.+2      	; 0xdd0 <handle_serial+0xfa>
     dce:	c4 c0       	rjmp	.+392    	; 0xf58 <handle_serial+0x282>
     dd0:	e0 e4       	ldi	r30, 0x40	; 64
     dd2:	f4 e0       	ldi	r31, 0x04	; 4
     dd4:	85 81       	ldd	r24, Z+5	; 0x05
     dd6:	80 68       	ori	r24, 0x80	; 128
     dd8:	85 83       	std	Z+5, r24	; 0x05
     dda:	10 92 e5 28 	sts	0x28E5, r1	; 0x8028e5 <status+0x15>
     dde:	b7 c0       	rjmp	.+366    	; 0xf4e <handle_serial+0x278>
     de0:	82 37       	cpi	r24, 0x72	; 114
     de2:	69 f4       	brne	.+26     	; 0xdfe <handle_serial+0x128>
     de4:	80 91 e2 28 	lds	r24, 0x28E2	; 0x8028e2 <status+0x12>
     de8:	88 23       	and	r24, r24
     dea:	09 f4       	brne	.+2      	; 0xdee <handle_serial+0x118>
     dec:	b5 c0       	rjmp	.+362    	; 0xf58 <handle_serial+0x282>
     dee:	e0 e4       	ldi	r30, 0x40	; 64
     df0:	f4 e0       	ldi	r31, 0x04	; 4
     df2:	85 81       	ldd	r24, Z+5	; 0x05
     df4:	80 64       	ori	r24, 0x40	; 64
     df6:	85 83       	std	Z+5, r24	; 0x05
     df8:	10 92 e6 28 	sts	0x28E6, r1	; 0x8028e6 <status+0x16>
     dfc:	a8 c0       	rjmp	.+336    	; 0xf4e <handle_serial+0x278>
     dfe:	82 34       	cpi	r24, 0x42	; 66
     e00:	41 f4       	brne	.+16     	; 0xe12 <handle_serial+0x13c>
     e02:	e0 e4       	ldi	r30, 0x40	; 64
     e04:	f4 e0       	ldi	r31, 0x04	; 4
     e06:	85 81       	ldd	r24, Z+5	; 0x05
     e08:	80 62       	ori	r24, 0x20	; 32
     e0a:	85 83       	std	Z+5, r24	; 0x05
     e0c:	10 92 e7 28 	sts	0x28E7, r1	; 0x8028e7 <status+0x17>
     e10:	9e c0       	rjmp	.+316    	; 0xf4e <handle_serial+0x278>
     e12:	83 37       	cpi	r24, 0x73	; 115
     e14:	09 f0       	breq	.+2      	; 0xe18 <handle_serial+0x142>
     e16:	a0 c0       	rjmp	.+320    	; 0xf58 <handle_serial+0x282>
     e18:	e0 e4       	ldi	r30, 0x40	; 64
     e1a:	f4 e0       	ldi	r31, 0x04	; 4
     e1c:	85 81       	ldd	r24, Z+5	; 0x05
     e1e:	80 61       	ori	r24, 0x10	; 16
     e20:	85 83       	std	Z+5, r24	; 0x05
     e22:	10 92 e8 28 	sts	0x28E8, r1	; 0x8028e8 <status+0x18>
     e26:	93 c0       	rjmp	.+294    	; 0xf4e <handle_serial+0x278>
     e28:	0e 94 0c 04 	call	0x818	; 0x818 <print_status>
     e2c:	90 c0       	rjmp	.+288    	; 0xf4e <handle_serial+0x278>
     e2e:	80 91 02 28 	lds	r24, 0x2802	; 0x802802 <recv_buf+0x1>
     e32:	86 37       	cpi	r24, 0x76	; 118
     e34:	89 f4       	brne	.+34     	; 0xe58 <handle_serial+0x182>
     e36:	4a e0       	ldi	r20, 0x0A	; 10
     e38:	50 e0       	ldi	r21, 0x00	; 0
     e3a:	60 e0       	ldi	r22, 0x00	; 0
     e3c:	70 e0       	ldi	r23, 0x00	; 0
     e3e:	83 e0       	ldi	r24, 0x03	; 3
     e40:	98 e2       	ldi	r25, 0x28	; 40
     e42:	0e 94 bc 0c 	call	0x1978	; 0x1978 <eeprom_update_block>
     e46:	4a e0       	ldi	r20, 0x0A	; 10
     e48:	50 e0       	ldi	r21, 0x00	; 0
     e4a:	60 e0       	ldi	r22, 0x00	; 0
     e4c:	70 e0       	ldi	r23, 0x00	; 0
     e4e:	80 ed       	ldi	r24, 0xD0	; 208
     e50:	98 e2       	ldi	r25, 0x28	; 40
     e52:	0e 94 b0 0c 	call	0x1960	; 0x1960 <eeprom_read_block>
     e56:	7b c0       	rjmp	.+246    	; 0xf4e <handle_serial+0x278>
     e58:	89 36       	cpi	r24, 0x69	; 105
     e5a:	69 f5       	brne	.+90     	; 0xeb6 <handle_serial+0x1e0>
     e5c:	83 e0       	ldi	r24, 0x03	; 3
     e5e:	98 e2       	ldi	r25, 0x28	; 40
     e60:	0e 94 90 09 	call	0x1320	; 0x1320 <atoi>
     e64:	8d 33       	cpi	r24, 0x3D	; 61
     e66:	20 f0       	brcs	.+8      	; 0xe70 <handle_serial+0x19a>
     e68:	8c e3       	ldi	r24, 0x3C	; 60
     e6a:	80 93 e3 28 	sts	0x28E3, r24	; 0x8028e3 <status+0x13>
     e6e:	08 c0       	rjmp	.+16     	; 0xe80 <handle_serial+0x1aa>
     e70:	82 30       	cpi	r24, 0x02	; 2
     e72:	18 f0       	brcs	.+6      	; 0xe7a <handle_serial+0x1a4>
     e74:	80 93 e3 28 	sts	0x28E3, r24	; 0x8028e3 <status+0x13>
     e78:	03 c0       	rjmp	.+6      	; 0xe80 <handle_serial+0x1aa>
     e7a:	82 e0       	ldi	r24, 0x02	; 2
     e7c:	80 93 e3 28 	sts	0x28E3, r24	; 0x8028e3 <status+0x13>
     e80:	c0 ed       	ldi	r28, 0xD0	; 208
     e82:	d8 e2       	ldi	r29, 0x28	; 40
     e84:	6b 89       	ldd	r22, Y+19	; 0x13
     e86:	8a e0       	ldi	r24, 0x0A	; 10
     e88:	90 e0       	ldi	r25, 0x00	; 0
     e8a:	0e 94 cc 0c 	call	0x1998	; 0x1998 <eeprom_update_byte>
     e8e:	8a e0       	ldi	r24, 0x0A	; 10
     e90:	90 e0       	ldi	r25, 0x00	; 0
     e92:	0e 94 b4 0c 	call	0x1968	; 0x1968 <eeprom_read_byte>
     e96:	8b 8b       	std	Y+19, r24	; 0x13
     e98:	98 2f       	mov	r25, r24
     e9a:	96 95       	lsr	r25
     e9c:	29 8d       	ldd	r18, Y+25	; 0x19
     e9e:	92 17       	cp	r25, r18
     ea0:	10 f4       	brcc	.+4      	; 0xea6 <handle_serial+0x1d0>
     ea2:	90 93 e9 28 	sts	0x28E9, r25	; 0x8028e9 <status+0x19>
     ea6:	90 91 e4 28 	lds	r25, 0x28E4	; 0x8028e4 <status+0x14>
     eaa:	89 17       	cp	r24, r25
     eac:	08 f0       	brcs	.+2      	; 0xeb0 <handle_serial+0x1da>
     eae:	4f c0       	rjmp	.+158    	; 0xf4e <handle_serial+0x278>
     eb0:	80 93 e4 28 	sts	0x28E4, r24	; 0x8028e4 <status+0x14>
     eb4:	4c c0       	rjmp	.+152    	; 0xf4e <handle_serial+0x278>
     eb6:	8d 36       	cpi	r24, 0x6D	; 109
     eb8:	09 f0       	breq	.+2      	; 0xebc <handle_serial+0x1e6>
     eba:	4e c0       	rjmp	.+156    	; 0xf58 <handle_serial+0x282>
     ebc:	83 e0       	ldi	r24, 0x03	; 3
     ebe:	98 e2       	ldi	r25, 0x28	; 40
     ec0:	0e 94 90 09 	call	0x1320	; 0x1320 <atoi>
     ec4:	e0 ed       	ldi	r30, 0xD0	; 208
     ec6:	f8 e2       	ldi	r31, 0x28	; 40
     ec8:	81 8f       	std	Z+25, r24	; 0x19
     eca:	93 89       	ldd	r25, Z+19	; 0x13
     ecc:	96 95       	lsr	r25
     ece:	98 17       	cp	r25, r24
     ed0:	18 f4       	brcc	.+6      	; 0xed8 <handle_serial+0x202>
     ed2:	90 93 e9 28 	sts	0x28E9, r25	; 0x8028e9 <status+0x19>
     ed6:	05 c0       	rjmp	.+10     	; 0xee2 <handle_serial+0x20c>
     ed8:	83 30       	cpi	r24, 0x03	; 3
     eda:	18 f4       	brcc	.+6      	; 0xee2 <handle_serial+0x20c>
     edc:	81 e0       	ldi	r24, 0x01	; 1
     ede:	80 93 e9 28 	sts	0x28E9, r24	; 0x8028e9 <status+0x19>
     ee2:	c0 ed       	ldi	r28, 0xD0	; 208
     ee4:	d8 e2       	ldi	r29, 0x28	; 40
     ee6:	69 8d       	ldd	r22, Y+25	; 0x19
     ee8:	8b e0       	ldi	r24, 0x0B	; 11
     eea:	90 e0       	ldi	r25, 0x00	; 0
     eec:	0e 94 cc 0c 	call	0x1998	; 0x1998 <eeprom_update_byte>
     ef0:	8b e0       	ldi	r24, 0x0B	; 11
     ef2:	90 e0       	ldi	r25, 0x00	; 0
     ef4:	0e 94 b4 0c 	call	0x1968	; 0x1968 <eeprom_read_byte>
     ef8:	89 8f       	std	Y+25, r24	; 0x19
     efa:	29 c0       	rjmp	.+82     	; 0xf4e <handle_serial+0x278>
     efc:	91 e0       	ldi	r25, 0x01	; 1
     efe:	03 c0       	rjmp	.+6      	; 0xf06 <handle_serial+0x230>
     f00:	91 e0       	ldi	r25, 0x01	; 1
     f02:	01 c0       	rjmp	.+2      	; 0xf06 <handle_serial+0x230>
     f04:	90 e0       	ldi	r25, 0x00	; 0
     f06:	ee ec       	ldi	r30, 0xCE	; 206
     f08:	f8 e2       	ldi	r31, 0x28	; 40
     f0a:	00 00       	nop
     f0c:	80 81       	ld	r24, Z
     f0e:	88 23       	and	r24, r24
     f10:	e1 f3       	breq	.-8      	; 0xf0a <handle_serial+0x234>
     f12:	99 23       	and	r25, r25
     f14:	39 f0       	breq	.+14     	; 0xf24 <handle_serial+0x24e>
     f16:	8e e3       	ldi	r24, 0x3E	; 62
     f18:	90 e0       	ldi	r25, 0x00	; 0
     f1a:	80 93 69 28 	sts	0x2869, r24	; 0x802869 <send_buf>
     f1e:	90 93 6a 28 	sts	0x286A, r25	; 0x80286a <send_buf+0x1>
     f22:	06 c0       	rjmp	.+12     	; 0xf30 <handle_serial+0x25a>
     f24:	8f e3       	ldi	r24, 0x3F	; 63
     f26:	90 e0       	ldi	r25, 0x00	; 0
     f28:	80 93 69 28 	sts	0x2869, r24	; 0x802869 <send_buf>
     f2c:	90 93 6a 28 	sts	0x286A, r25	; 0x80286a <send_buf+0x1>
     f30:	e9 e6       	ldi	r30, 0x69	; 105
     f32:	f8 e2       	ldi	r31, 0x28	; 40
     f34:	01 90       	ld	r0, Z+
     f36:	00 20       	and	r0, r0
     f38:	e9 f7       	brne	.-6      	; 0xf34 <handle_serial+0x25e>
     f3a:	31 97       	sbiw	r30, 0x01	; 1
     f3c:	e9 56       	subi	r30, 0x69	; 105
     f3e:	f8 42       	sbci	r31, 0x28	; 40
     f40:	e0 93 cd 28 	sts	0x28CD, r30	; 0x8028cd <send_buf+0x64>
     f44:	0e 94 8d 03 	call	0x71a	; 0x71a <send_serial>
     f48:	10 92 66 28 	sts	0x2866, r1	; 0x802866 <recv_buf+0x65>
     f4c:	0a c0       	rjmp	.+20     	; 0xf62 <handle_serial+0x28c>
     f4e:	80 91 ce 28 	lds	r24, 0x28CE	; 0x8028ce <send_buf+0x65>
     f52:	88 23       	and	r24, r24
     f54:	a9 f2       	breq	.-86     	; 0xf00 <handle_serial+0x22a>
     f56:	df cf       	rjmp	.-66     	; 0xf16 <handle_serial+0x240>
     f58:	80 91 ce 28 	lds	r24, 0x28CE	; 0x8028ce <send_buf+0x65>
     f5c:	88 23       	and	r24, r24
     f5e:	91 f2       	breq	.-92     	; 0xf04 <handle_serial+0x22e>
     f60:	e1 cf       	rjmp	.-62     	; 0xf24 <handle_serial+0x24e>
     f62:	df 91       	pop	r29
     f64:	cf 91       	pop	r28
     f66:	08 95       	ret

00000f68 <init_RTC>:
     f68:	e0 e6       	ldi	r30, 0x60	; 96
     f6a:	f0 e0       	ldi	r31, 0x00	; 0
     f6c:	84 8d       	ldd	r24, Z+28	; 0x1c
     f6e:	8e 7f       	andi	r24, 0xFE	; 254
     f70:	98 ed       	ldi	r25, 0xD8	; 216
     f72:	94 bf       	out	0x34, r25	; 52
     f74:	84 8f       	std	Z+28, r24	; 0x1c
     f76:	83 81       	ldd	r24, Z+3	; 0x03
     f78:	86 ff       	sbrs	r24, 6
     f7a:	04 c0       	rjmp	.+8      	; 0xf84 <init_RTC+0x1c>
     f7c:	00 00       	nop
     f7e:	83 81       	ldd	r24, Z+3	; 0x03
     f80:	86 fd       	sbrc	r24, 6
     f82:	fc cf       	rjmp	.-8      	; 0xf7c <init_RTC+0x14>
     f84:	e0 e6       	ldi	r30, 0x60	; 96
     f86:	f0 e0       	ldi	r31, 0x00	; 0
     f88:	84 8d       	ldd	r24, Z+28	; 0x1c
     f8a:	8b 7f       	andi	r24, 0xFB	; 251
     f8c:	98 ed       	ldi	r25, 0xD8	; 216
     f8e:	94 bf       	out	0x34, r25	; 52
     f90:	84 8f       	std	Z+28, r24	; 0x1c
     f92:	84 8d       	ldd	r24, Z+28	; 0x1c
     f94:	81 60       	ori	r24, 0x01	; 1
     f96:	94 bf       	out	0x34, r25	; 52
     f98:	84 8f       	std	Z+28, r24	; 0x1c
     f9a:	80 91 41 01 	lds	r24, 0x0141	; 0x800141 <__TEXT_REGION_LENGTH__+0x7f4141>
     f9e:	88 23       	and	r24, r24
     fa0:	31 f0       	breq	.+12     	; 0xfae <init_RTC+0x46>
     fa2:	e0 e4       	ldi	r30, 0x40	; 64
     fa4:	f1 e0       	ldi	r31, 0x01	; 1
     fa6:	00 00       	nop
     fa8:	81 81       	ldd	r24, Z+1	; 0x01
     faa:	81 11       	cpse	r24, r1
     fac:	fc cf       	rjmp	.-8      	; 0xfa6 <init_RTC+0x3e>
     fae:	e0 e4       	ldi	r30, 0x40	; 64
     fb0:	f1 e0       	ldi	r31, 0x01	; 1
     fb2:	8f ef       	ldi	r24, 0xFF	; 255
     fb4:	97 e7       	ldi	r25, 0x77	; 119
     fb6:	82 87       	std	Z+10, r24	; 0x0a
     fb8:	93 87       	std	Z+11, r25	; 0x0b
     fba:	82 e0       	ldi	r24, 0x02	; 2
     fbc:	87 83       	std	Z+7, r24	; 0x07
     fbe:	85 81       	ldd	r24, Z+5	; 0x05
     fc0:	81 60       	ori	r24, 0x01	; 1
     fc2:	85 83       	std	Z+5, r24	; 0x05
     fc4:	81 eb       	ldi	r24, 0xB1	; 177
     fc6:	80 83       	st	Z, r24
     fc8:	82 81       	ldd	r24, Z+2	; 0x02
     fca:	81 60       	ori	r24, 0x01	; 1
     fcc:	82 83       	std	Z+2, r24	; 0x02
     fce:	08 95       	ret

00000fd0 <__vector_3>:
     fd0:	1f 92       	push	r1
     fd2:	0f 92       	push	r0
     fd4:	0f b6       	in	r0, 0x3f	; 63
     fd6:	0f 92       	push	r0
     fd8:	11 24       	eor	r1, r1
     fda:	2f 93       	push	r18
     fdc:	8f 93       	push	r24
     fde:	9f 93       	push	r25
     fe0:	af 93       	push	r26
     fe2:	bf 93       	push	r27
     fe4:	ef 93       	push	r30
     fe6:	ff 93       	push	r31
     fe8:	81 e0       	ldi	r24, 0x01	; 1
     fea:	80 93 43 01 	sts	0x0143, r24	; 0x800143 <__TEXT_REGION_LENGTH__+0x7f4143>
     fee:	80 91 48 04 	lds	r24, 0x0448	; 0x800448 <__TEXT_REGION_LENGTH__+0x7f4448>
     ff2:	88 23       	and	r24, r24
     ff4:	04 f5       	brge	.+64     	; 0x1036 <__vector_3+0x66>
     ff6:	e0 ed       	ldi	r30, 0xD0	; 208
     ff8:	f8 e2       	ldi	r31, 0x28	; 40
     ffa:	85 89       	ldd	r24, Z+21	; 0x15
     ffc:	8f 5f       	subi	r24, 0xFF	; 255
     ffe:	85 8b       	std	Z+21, r24	; 0x15
    1000:	91 8d       	ldd	r25, Z+25	; 0x19
    1002:	89 17       	cp	r24, r25
    1004:	c0 f0       	brcs	.+48     	; 0x1036 <__vector_3+0x66>
    1006:	e0 e4       	ldi	r30, 0x40	; 64
    1008:	f4 e0       	ldi	r31, 0x04	; 4
    100a:	86 81       	ldd	r24, Z+6	; 0x06
    100c:	80 68       	ori	r24, 0x80	; 128
    100e:	86 83       	std	Z+6, r24	; 0x06
    1010:	e0 ed       	ldi	r30, 0xD0	; 208
    1012:	f8 e2       	ldi	r31, 0x28	; 40
    1014:	15 8a       	std	Z+21, r1	; 0x15
    1016:	81 e0       	ldi	r24, 0x01	; 1
    1018:	82 8f       	std	Z+26, r24	; 0x1a
    101a:	82 89       	ldd	r24, Z+18	; 0x12
    101c:	88 23       	and	r24, r24
    101e:	59 f0       	breq	.+22     	; 0x1036 <__vector_3+0x66>
    1020:	80 91 88 04 	lds	r24, 0x0488	; 0x800488 <__TEXT_REGION_LENGTH__+0x7f4488>
    1024:	81 ff       	sbrs	r24, 1
    1026:	07 c0       	rjmp	.+14     	; 0x1036 <__vector_3+0x66>
    1028:	e0 e4       	ldi	r30, 0x40	; 64
    102a:	f4 e0       	ldi	r31, 0x04	; 4
    102c:	85 81       	ldd	r24, Z+5	; 0x05
    102e:	80 64       	ori	r24, 0x40	; 64
    1030:	85 83       	std	Z+5, r24	; 0x05
    1032:	10 92 e6 28 	sts	0x28E6, r1	; 0x8028e6 <status+0x16>
    1036:	80 91 48 04 	lds	r24, 0x0448	; 0x800448 <__TEXT_REGION_LENGTH__+0x7f4448>
    103a:	86 ff       	sbrs	r24, 6
    103c:	12 c0       	rjmp	.+36     	; 0x1062 <__vector_3+0x92>
    103e:	e0 ed       	ldi	r30, 0xD0	; 208
    1040:	f8 e2       	ldi	r31, 0x28	; 40
    1042:	86 89       	ldd	r24, Z+22	; 0x16
    1044:	8f 5f       	subi	r24, 0xFF	; 255
    1046:	86 8b       	std	Z+22, r24	; 0x16
    1048:	91 8d       	ldd	r25, Z+25	; 0x19
    104a:	89 17       	cp	r24, r25
    104c:	50 f0       	brcs	.+20     	; 0x1062 <__vector_3+0x92>
    104e:	e0 e4       	ldi	r30, 0x40	; 64
    1050:	f4 e0       	ldi	r31, 0x04	; 4
    1052:	86 81       	ldd	r24, Z+6	; 0x06
    1054:	80 64       	ori	r24, 0x40	; 64
    1056:	86 83       	std	Z+6, r24	; 0x06
    1058:	e0 ed       	ldi	r30, 0xD0	; 208
    105a:	f8 e2       	ldi	r31, 0x28	; 40
    105c:	16 8a       	std	Z+22, r1	; 0x16
    105e:	81 e0       	ldi	r24, 0x01	; 1
    1060:	83 8f       	std	Z+27, r24	; 0x1b
    1062:	80 91 48 04 	lds	r24, 0x0448	; 0x800448 <__TEXT_REGION_LENGTH__+0x7f4448>
    1066:	85 ff       	sbrs	r24, 5
    1068:	22 c0       	rjmp	.+68     	; 0x10ae <__vector_3+0xde>
    106a:	e0 ed       	ldi	r30, 0xD0	; 208
    106c:	f8 e2       	ldi	r31, 0x28	; 40
    106e:	87 89       	ldd	r24, Z+23	; 0x17
    1070:	8f 5f       	subi	r24, 0xFF	; 255
    1072:	87 8b       	std	Z+23, r24	; 0x17
    1074:	8f 31       	cpi	r24, 0x1F	; 31
    1076:	d8 f0       	brcs	.+54     	; 0x10ae <__vector_3+0xde>
    1078:	e0 e4       	ldi	r30, 0x40	; 64
    107a:	f4 e0       	ldi	r31, 0x04	; 4
    107c:	86 81       	ldd	r24, Z+6	; 0x06
    107e:	80 61       	ori	r24, 0x10	; 16
    1080:	86 83       	std	Z+6, r24	; 0x06
    1082:	a0 ed       	ldi	r26, 0xD0	; 208
    1084:	b8 e2       	ldi	r27, 0x28	; 40
    1086:	58 96       	adiw	r26, 0x18	; 24
    1088:	1c 92       	st	X, r1
    108a:	58 97       	sbiw	r26, 0x18	; 24
    108c:	2a e0       	ldi	r18, 0x0A	; 10
    108e:	8b e8       	ldi	r24, 0x8B	; 139
    1090:	92 e0       	ldi	r25, 0x02	; 2
    1092:	21 50       	subi	r18, 0x01	; 1
    1094:	80 40       	sbci	r24, 0x00	; 0
    1096:	90 40       	sbci	r25, 0x00	; 0
    1098:	e1 f7       	brne	.-8      	; 0x1092 <__vector_3+0xc2>
    109a:	00 c0       	rjmp	.+0      	; 0x109c <__vector_3+0xcc>
    109c:	86 81       	ldd	r24, Z+6	; 0x06
    109e:	80 62       	ori	r24, 0x20	; 32
    10a0:	86 83       	std	Z+6, r24	; 0x06
    10a2:	58 96       	adiw	r26, 0x18	; 24
    10a4:	1c 92       	st	X, r1
    10a6:	58 97       	sbiw	r26, 0x18	; 24
    10a8:	81 e0       	ldi	r24, 0x01	; 1
    10aa:	5c 96       	adiw	r26, 0x1c	; 28
    10ac:	8c 93       	st	X, r24
    10ae:	80 91 48 04 	lds	r24, 0x0448	; 0x800448 <__TEXT_REGION_LENGTH__+0x7f4448>
    10b2:	84 ff       	sbrs	r24, 4
    10b4:	05 c0       	rjmp	.+10     	; 0x10c0 <__vector_3+0xf0>
    10b6:	e0 ed       	ldi	r30, 0xD0	; 208
    10b8:	f8 e2       	ldi	r31, 0x28	; 40
    10ba:	80 8d       	ldd	r24, Z+24	; 0x18
    10bc:	8f 5f       	subi	r24, 0xFF	; 255
    10be:	80 8f       	std	Z+24, r24	; 0x18
    10c0:	e0 ed       	ldi	r30, 0xD0	; 208
    10c2:	f8 e2       	ldi	r31, 0x28	; 40
    10c4:	84 89       	ldd	r24, Z+20	; 0x14
    10c6:	81 50       	subi	r24, 0x01	; 1
    10c8:	84 8b       	std	Z+20, r24	; 0x14
    10ca:	81 11       	cpse	r24, r1
    10cc:	27 c0       	rjmp	.+78     	; 0x111c <__vector_3+0x14c>
    10ce:	80 91 e1 28 	lds	r24, 0x28E1	; 0x8028e1 <status+0x11>
    10d2:	88 23       	and	r24, r24
    10d4:	71 f0       	breq	.+28     	; 0x10f2 <__vector_3+0x122>
    10d6:	80 91 88 04 	lds	r24, 0x0488	; 0x800488 <__TEXT_REGION_LENGTH__+0x7f4488>
    10da:	80 ff       	sbrs	r24, 0
    10dc:	0a c0       	rjmp	.+20     	; 0x10f2 <__vector_3+0x122>
    10de:	e0 e4       	ldi	r30, 0x40	; 64
    10e0:	f4 e0       	ldi	r31, 0x04	; 4
    10e2:	85 81       	ldd	r24, Z+5	; 0x05
    10e4:	80 68       	ori	r24, 0x80	; 128
    10e6:	85 83       	std	Z+5, r24	; 0x05
    10e8:	e0 ed       	ldi	r30, 0xD0	; 208
    10ea:	f8 e2       	ldi	r31, 0x28	; 40
    10ec:	15 8a       	std	Z+21, r1	; 0x15
    10ee:	12 8e       	std	Z+26, r1	; 0x1a
    10f0:	11 c0       	rjmp	.+34     	; 0x1114 <__vector_3+0x144>
    10f2:	80 91 e2 28 	lds	r24, 0x28E2	; 0x8028e2 <status+0x12>
    10f6:	88 23       	and	r24, r24
    10f8:	69 f0       	breq	.+26     	; 0x1114 <__vector_3+0x144>
    10fa:	80 91 88 04 	lds	r24, 0x0488	; 0x800488 <__TEXT_REGION_LENGTH__+0x7f4488>
    10fe:	81 ff       	sbrs	r24, 1
    1100:	09 c0       	rjmp	.+18     	; 0x1114 <__vector_3+0x144>
    1102:	e0 e4       	ldi	r30, 0x40	; 64
    1104:	f4 e0       	ldi	r31, 0x04	; 4
    1106:	85 81       	ldd	r24, Z+5	; 0x05
    1108:	80 64       	ori	r24, 0x40	; 64
    110a:	85 83       	std	Z+5, r24	; 0x05
    110c:	e0 ed       	ldi	r30, 0xD0	; 208
    110e:	f8 e2       	ldi	r31, 0x28	; 40
    1110:	16 8a       	std	Z+22, r1	; 0x16
    1112:	13 8e       	std	Z+27, r1	; 0x1b
    1114:	e0 ed       	ldi	r30, 0xD0	; 208
    1116:	f8 e2       	ldi	r31, 0x28	; 40
    1118:	83 89       	ldd	r24, Z+19	; 0x13
    111a:	84 8b       	std	Z+20, r24	; 0x14
    111c:	ff 91       	pop	r31
    111e:	ef 91       	pop	r30
    1120:	bf 91       	pop	r27
    1122:	af 91       	pop	r26
    1124:	9f 91       	pop	r25
    1126:	8f 91       	pop	r24
    1128:	2f 91       	pop	r18
    112a:	0f 90       	pop	r0
    112c:	0f be       	out	0x3f, r0	; 63
    112e:	0f 90       	pop	r0
    1130:	1f 90       	pop	r1
    1132:	18 95       	reti

00001134 <__vector_35>:
In all cases, close the corresponding valve. The valve on a thermistor
that is warming up is probably closed already but doing this doesn't
hurt anything.
----------------------------------------------------------------------*/
ISR(PORTE_PORT_vect)
{
    1134:	1f 92       	push	r1
    1136:	0f 92       	push	r0
    1138:	0f b6       	in	r0, 0x3f	; 63
    113a:	0f 92       	push	r0
    113c:	11 24       	eor	r1, r1
    113e:	2f 93       	push	r18
    1140:	8f 93       	push	r24
    1142:	9f 93       	push	r25
    1144:	af 93       	push	r26
    1146:	bf 93       	push	r27
    1148:	cf 93       	push	r28
    114a:	df 93       	push	r29
    114c:	ef 93       	push	r30
    114e:	ff 93       	push	r31

	if (PORTE.INTFLAGS & PIN0_bm) {		// Blue dewar thermistor changed state
    1150:	80 91 89 04 	lds	r24, 0x0489	; 0x800489 <__TEXT_REGION_LENGTH__+0x7f4489>
    1154:	80 ff       	sbrs	r24, 0
    1156:	23 c0       	rjmp	.+70     	; 0x119e <__vector_35+0x6a>
		PORTE.INTFLAGS |= PIN0_bm;		// Clear the interrupt flag
    1158:	e0 e8       	ldi	r30, 0x80	; 128
    115a:	f4 e0       	ldi	r31, 0x04	; 4
    115c:	81 85       	ldd	r24, Z+9	; 0x09
    115e:	81 60       	ori	r24, 0x01	; 1
    1160:	81 87       	std	Z+9, r24	; 0x09
		CLOSEVALVE(BLUVALVE);			// Close the valve whether open or not
    1162:	a0 e4       	ldi	r26, 0x40	; 64
    1164:	b4 e0       	ldi	r27, 0x04	; 4
    1166:	16 96       	adiw	r26, 0x06	; 6
    1168:	8c 91       	ld	r24, X
    116a:	16 97       	sbiw	r26, 0x06	; 6
    116c:	80 68       	ori	r24, 0x80	; 128
    116e:	16 96       	adiw	r26, 0x06	; 6
    1170:	8c 93       	st	X, r24
		status.opentime_BLU = 0;
    1172:	10 92 e5 28 	sts	0x28E5, r1	; 0x8028e5 <status+0x15>
		if (!BLUTHERMWARM) {
    1176:	80 85       	ldd	r24, Z+8	; 0x08
    1178:	80 fd       	sbrc	r24, 0
    117a:	11 c0       	rjmp	.+34     	; 0x119e <__vector_35+0x6a>
			status.maxopen_BLU = FALSE;	// Clear a max_opentime limit
    117c:	e0 ed       	ldi	r30, 0xD0	; 208
    117e:	f8 e2       	ldi	r31, 0x28	; 40
    1180:	12 8e       	std	Z+26, r1	; 0x1a
			if (status.enable_RED && REDTHERMWARM) {	// Start red fill after blue finishes
    1182:	82 89       	ldd	r24, Z+18	; 0x12
    1184:	88 23       	and	r24, r24
    1186:	59 f0       	breq	.+22     	; 0x119e <__vector_35+0x6a>
    1188:	80 91 88 04 	lds	r24, 0x0488	; 0x800488 <__TEXT_REGION_LENGTH__+0x7f4488>
    118c:	81 ff       	sbrs	r24, 1
    118e:	07 c0       	rjmp	.+14     	; 0x119e <__vector_35+0x6a>
				OPENVALVE(REDVALVE);
    1190:	e0 e4       	ldi	r30, 0x40	; 64
    1192:	f4 e0       	ldi	r31, 0x04	; 4
    1194:	85 81       	ldd	r24, Z+5	; 0x05
    1196:	80 64       	ori	r24, 0x40	; 64
    1198:	85 83       	std	Z+5, r24	; 0x05
				status.opentime_RED = 0;
    119a:	10 92 e6 28 	sts	0x28E6, r1	; 0x8028e6 <status+0x16>
			}
		}
	}

	if (PORTE.INTFLAGS & PIN1_bm) {		// Red dewar thermistor changed state
    119e:	80 91 89 04 	lds	r24, 0x0489	; 0x800489 <__TEXT_REGION_LENGTH__+0x7f4489>
    11a2:	81 ff       	sbrs	r24, 1
    11a4:	13 c0       	rjmp	.+38     	; 0x11cc <__vector_35+0x98>
		PORTE.INTFLAGS |= PIN1_bm;		// Clear the interrupt flag
    11a6:	e0 e8       	ldi	r30, 0x80	; 128
    11a8:	f4 e0       	ldi	r31, 0x04	; 4
    11aa:	81 85       	ldd	r24, Z+9	; 0x09
    11ac:	82 60       	ori	r24, 0x02	; 2
    11ae:	81 87       	std	Z+9, r24	; 0x09
		CLOSEVALVE(REDVALVE);
    11b0:	a0 e4       	ldi	r26, 0x40	; 64
    11b2:	b4 e0       	ldi	r27, 0x04	; 4
    11b4:	16 96       	adiw	r26, 0x06	; 6
    11b6:	8c 91       	ld	r24, X
    11b8:	16 97       	sbiw	r26, 0x06	; 6
    11ba:	80 64       	ori	r24, 0x40	; 64
    11bc:	16 96       	adiw	r26, 0x06	; 6
    11be:	8c 93       	st	X, r24
		status.opentime_RED = 0;
    11c0:	10 92 e6 28 	sts	0x28E6, r1	; 0x8028e6 <status+0x16>
		if (!REDTHERMWARM) {
    11c4:	80 85       	ldd	r24, Z+8	; 0x08
    11c6:	81 ff       	sbrs	r24, 1
			status.maxopen_RED = FALSE;	// Clear a max_opentime limit
    11c8:	10 92 eb 28 	sts	0x28EB, r1	; 0x8028eb <status+0x1b>
		}
	}

	if (PORTE.INTFLAGS & PIN2_bm) {		// Buffer dewar thermistor changed state
    11cc:	80 91 89 04 	lds	r24, 0x0489	; 0x800489 <__TEXT_REGION_LENGTH__+0x7f4489>
    11d0:	82 ff       	sbrs	r24, 2
    11d2:	23 c0       	rjmp	.+70     	; 0x121a <__vector_35+0xe6>
		PORTE.INTFLAGS |= PIN2_bm;
    11d4:	a0 e8       	ldi	r26, 0x80	; 128
    11d6:	b4 e0       	ldi	r27, 0x04	; 4
    11d8:	19 96       	adiw	r26, 0x09	; 9
    11da:	8c 91       	ld	r24, X
    11dc:	19 97       	sbiw	r26, 0x09	; 9
    11de:	84 60       	ori	r24, 0x04	; 4
    11e0:	19 96       	adiw	r26, 0x09	; 9
    11e2:	8c 93       	st	X, r24
    11e4:	19 97       	sbiw	r26, 0x09	; 9
		CLOSEVALVE(BUFVALVE);
    11e6:	e0 e4       	ldi	r30, 0x40	; 64
    11e8:	f4 e0       	ldi	r31, 0x04	; 4
    11ea:	86 81       	ldd	r24, Z+6	; 0x06
    11ec:	80 62       	ori	r24, 0x20	; 32
    11ee:	86 83       	std	Z+6, r24	; 0x06
		status.opentime_BUF = 0;
    11f0:	c0 ed       	ldi	r28, 0xD0	; 208
    11f2:	d8 e2       	ldi	r29, 0x28	; 40
    11f4:	1f 8a       	std	Y+23, r1	; 0x17
		status.maxopen_BUF = FALSE;
    11f6:	1c 8e       	std	Y+28, r1	; 0x1c
	#else
		//round up by default
		__ticks_dc = (uint32_t)(ceil(fabs(__tmp)));
	#endif

	__builtin_avr_delay_cycles(__ticks_dc);
    11f8:	2a e0       	ldi	r18, 0x0A	; 10
    11fa:	8b e8       	ldi	r24, 0x8B	; 139
    11fc:	92 e0       	ldi	r25, 0x02	; 2
    11fe:	21 50       	subi	r18, 0x01	; 1
    1200:	80 40       	sbci	r24, 0x00	; 0
    1202:	90 40       	sbci	r25, 0x00	; 0
    1204:	e1 f7       	brne	.-8      	; 0x11fe <__vector_35+0xca>
    1206:	00 c0       	rjmp	.+0      	; 0x1208 <__vector_35+0xd4>
		_delay_ms(250);					// Wait a bit
		CLOSEVALVE(SUPVALVE);
    1208:	86 81       	ldd	r24, Z+6	; 0x06
    120a:	80 61       	ori	r24, 0x10	; 16
    120c:	86 83       	std	Z+6, r24	; 0x06
		status.opentime_SUP = 0;
    120e:	18 8e       	std	Y+24, r1	; 0x18
		if (!BUFTHERMWARM) {
    1210:	18 96       	adiw	r26, 0x08	; 8
    1212:	8c 91       	ld	r24, X
    1214:	82 ff       	sbrs	r24, 2
			status.maxopen_BUF = FALSE;	// Clear a BUFMAXOPEN time
    1216:	10 92 ec 28 	sts	0x28EC, r1	; 0x8028ec <status+0x1c>
		}
	}
}
    121a:	ff 91       	pop	r31
    121c:	ef 91       	pop	r30
    121e:	df 91       	pop	r29
    1220:	cf 91       	pop	r28
    1222:	bf 91       	pop	r27
    1224:	af 91       	pop	r26
    1226:	9f 91       	pop	r25
    1228:	8f 91       	pop	r24
    122a:	2f 91       	pop	r18
    122c:	0f 90       	pop	r0
    122e:	0f be       	out	0x3f, r0	; 63
    1230:	0f 90       	pop	r0
    1232:	1f 90       	pop	r1
    1234:	18 95       	reti

00001236 <init_ADC>:
 Trigger a conversion by writing 1 to STCONV in ADCn.COMMAND
----------------------------------------------------------------------*/
void init_ADC()
{

	PORTD_PIN0CTRL = PORT_ISC_INPUT_DISABLE_gc;		// Disable digital input
    1236:	84 e0       	ldi	r24, 0x04	; 4
    1238:	80 93 70 04 	sts	0x0470, r24	; 0x800470 <__TEXT_REGION_LENGTH__+0x7f4470>
	ADC0_CTRLA |= ADC_RESSEL_8BIT_gc;		// 8-bit resolution
    123c:	e0 e0       	ldi	r30, 0x00	; 0
    123e:	f6 e0       	ldi	r31, 0x06	; 6
    1240:	80 81       	ld	r24, Z
    1242:	84 60       	ori	r24, 0x04	; 4
    1244:	80 83       	st	Z, r24
	VREF.CTRLA |= VREF_ADC0REFSEL_4V34_gc;	// Use 4.3V
    1246:	a0 ea       	ldi	r26, 0xA0	; 160
    1248:	b0 e0       	ldi	r27, 0x00	; 0
    124a:	8c 91       	ld	r24, X
    124c:	80 63       	ori	r24, 0x30	; 48
    124e:	8c 93       	st	X, r24
	ADC0_CTRLC |= ADC_REFSEL_INTREF_gc;		// Use internal vref
    1250:	a2 e0       	ldi	r26, 0x02	; 2
    1252:	b6 e0       	ldi	r27, 0x06	; 6
    1254:	8c 91       	ld	r24, X
    1256:	8c 93       	st	X, r24
//	VREF.CTRLA |= VREF_ADC0REFSEL_2V5_gc;	// Use 2.5V
	ADC0_CTRLC |= ADC_SAMPCAP_bm;			// Reduce sampling capacitance
    1258:	8c 91       	ld	r24, X
    125a:	80 64       	ori	r24, 0x40	; 64
    125c:	8c 93       	st	X, r24
	ADC0_MUXPOS = ADC_MUXPOS0_bm;			// PD0
    125e:	81 e0       	ldi	r24, 0x01	; 1
    1260:	80 93 06 06 	sts	0x0606, r24	; 0x800606 <__TEXT_REGION_LENGTH__+0x7f4606>
	ADC0.CTRLA |= ADC_ENABLE_bm;			// Enable ADC
    1264:	80 81       	ld	r24, Z
    1266:	81 60       	ori	r24, 0x01	; 1
    1268:	80 83       	st	Z, r24
	ADC0_COMMAND |= ADC_STCONV_bm;		// Start ADC conversion and throw away
    126a:	e8 e0       	ldi	r30, 0x08	; 8
    126c:	f6 e0       	ldi	r31, 0x06	; 6
    126e:	80 81       	ld	r24, Z
    1270:	81 60       	ori	r24, 0x01	; 1
    1272:	80 83       	st	Z, r24
	while (ADC0_COMMAND & ADC_STCONV_bm) {
    1274:	80 81       	ld	r24, Z
    1276:	80 ff       	sbrs	r24, 0
    1278:	04 c0       	rjmp	.+8      	; 0x1282 <init_ADC+0x4c>
		asm("nop");
    127a:	00 00       	nop
//	VREF.CTRLA |= VREF_ADC0REFSEL_2V5_gc;	// Use 2.5V
	ADC0_CTRLC |= ADC_SAMPCAP_bm;			// Reduce sampling capacitance
	ADC0_MUXPOS = ADC_MUXPOS0_bm;			// PD0
	ADC0.CTRLA |= ADC_ENABLE_bm;			// Enable ADC
	ADC0_COMMAND |= ADC_STCONV_bm;		// Start ADC conversion and throw away
	while (ADC0_COMMAND & ADC_STCONV_bm) {
    127c:	80 81       	ld	r24, Z
    127e:	80 fd       	sbrc	r24, 0
    1280:	fc cf       	rjmp	.-8      	; 0x127a <init_ADC+0x44>
		asm("nop");
	}
	status.pressure = ADC0_RES;
    1282:	80 91 10 06 	lds	r24, 0x0610	; 0x800610 <__TEXT_REGION_LENGTH__+0x7f4610>
    1286:	90 91 11 06 	lds	r25, 0x0611	; 0x800611 <__TEXT_REGION_LENGTH__+0x7f4611>
    128a:	80 93 ed 28 	sts	0x28ED, r24	; 0x8028ed <status+0x1d>
    128e:	08 95       	ret

00001290 <initialize>:
}

void initialize(void)
{

	init_ports();		// Set all ports to input w/pullups or disabled
    1290:	0e 94 6b 00 	call	0xd6	; 0xd6 <init_ports>
	init_LED();			// Set up on-board LED port
    1294:	0e 94 a3 00 	call	0x146	; 0x146 <init_LED>
	init_RTC();
    1298:	0e 94 b4 07 	call	0xf68	; 0xf68 <init_RTC>
	init_TCB2();		// Turn on PWM for debouncer
    129c:	0e 94 a9 00 	call	0x152	; 0x152 <init_TCB2>
	init_switches();
    12a0:	0e 94 db 00 	call	0x1b6	; 0x1b6 <init_switches>
	init_Valves();
    12a4:	0e 94 6a 03 	call	0x6d4	; 0x6d4 <init_Valves>
	init_Serial();
    12a8:	0e 94 74 03 	call	0x6e8	; 0x6e8 <init_Serial>
	init_TWI();
    12ac:	0e 94 6c 01 	call	0x2d8	; 0x2d8 <init_TWI>
	init_OLED();
    12b0:	0e 94 d0 01 	call	0x3a0	; 0x3a0 <init_OLED>
	init_ADC();
    12b4:	0e 94 1b 09 	call	0x1236	; 0x1236 <init_ADC>
	init_status();
    12b8:	0e 94 3e 03 	call	0x67c	; 0x67c <init_status>
	write_OLED_string("LN2 Autofill", 1);
    12bc:	61 e0       	ldi	r22, 0x01	; 1
    12be:	8b ec       	ldi	r24, 0xCB	; 203
    12c0:	9a e5       	ldi	r25, 0x5A	; 90
    12c2:	0e 94 55 02 	call	0x4aa	; 0x4aa <write_OLED_string>
	write_OLED_string(status.version, 2);
    12c6:	62 e0       	ldi	r22, 0x02	; 2
    12c8:	80 ed       	ldi	r24, 0xD0	; 208
    12ca:	98 e2       	ldi	r25, 0x28	; 40
    12cc:	0e 94 55 02 	call	0x4aa	; 0x4aa <write_OLED_string>
    12d0:	08 95       	ret

000012d2 <main>:
struct serial_data send_buf, recv_buf;

int main(void)
{

	initialize();
    12d2:	0e 94 48 09 	call	0x1290	; 0x1290 <initialize>
	sei();
    12d6:	78 94       	sei
OPENVALVE(BLUVALVE);
    12d8:	e0 e4       	ldi	r30, 0x40	; 64
    12da:	f4 e0       	ldi	r31, 0x04	; 4
    12dc:	85 81       	ldd	r24, Z+5	; 0x05
    12de:	80 68       	ori	r24, 0x80	; 128
    12e0:	85 83       	std	Z+5, r24	; 0x05
	for (;;) {
		_delay_ms(2);

		if (switch_sensed) {
			handle_switches();
			TOGGLELED;
    12e2:	00 ea       	ldi	r16, 0xA0	; 160
    12e4:	14 e0       	ldi	r17, 0x04	; 4
		}

		if (recv_buf.done) {
    12e6:	c6 e6       	ldi	r28, 0x66	; 102
    12e8:	d8 e2       	ldi	r29, 0x28	; 40
    12ea:	82 e8       	ldi	r24, 0x82	; 130
    12ec:	96 e0       	ldi	r25, 0x06	; 6
    12ee:	01 97       	sbiw	r24, 0x01	; 1
    12f0:	f1 f7       	brne	.-4      	; 0x12ee <main+0x1c>
    12f2:	00 c0       	rjmp	.+0      	; 0x12f4 <main+0x22>
OPENVALVE(BLUVALVE);

	for (;;) {
		_delay_ms(2);

		if (switch_sensed) {
    12f4:	80 91 00 28 	lds	r24, 0x2800	; 0x802800 <__DATA_REGION_ORIGIN__>
    12f8:	88 23       	and	r24, r24
    12fa:	31 f0       	breq	.+12     	; 0x1308 <main+0x36>
			handle_switches();
    12fc:	0e 94 9f 02 	call	0x53e	; 0x53e <handle_switches>
			TOGGLELED;
    1300:	f8 01       	movw	r30, r16
    1302:	87 81       	ldd	r24, Z+7	; 0x07
    1304:	80 62       	ori	r24, 0x20	; 32
    1306:	87 83       	std	Z+7, r24	; 0x07
		}

		if (recv_buf.done) {
    1308:	88 81       	ld	r24, Y
    130a:	88 23       	and	r24, r24
    130c:	71 f3       	breq	.-36     	; 0x12ea <main+0x18>
			handle_serial();
    130e:	0e 94 6b 06 	call	0xcd6	; 0xcd6 <handle_serial>
    1312:	eb cf       	rjmp	.-42     	; 0x12ea <main+0x18>

00001314 <__tablejump2__>:
    1314:	ee 0f       	add	r30, r30
    1316:	ff 1f       	adc	r31, r31
    1318:	05 90       	lpm	r0, Z+
    131a:	f4 91       	lpm	r31, Z
    131c:	e0 2d       	mov	r30, r0
    131e:	09 94       	ijmp

00001320 <atoi>:
    1320:	fc 01       	movw	r30, r24
    1322:	88 27       	eor	r24, r24
    1324:	99 27       	eor	r25, r25
    1326:	e8 94       	clt
    1328:	21 91       	ld	r18, Z+
    132a:	20 32       	cpi	r18, 0x20	; 32
    132c:	e9 f3       	breq	.-6      	; 0x1328 <atoi+0x8>
    132e:	29 30       	cpi	r18, 0x09	; 9
    1330:	10 f0       	brcs	.+4      	; 0x1336 <atoi+0x16>
    1332:	2e 30       	cpi	r18, 0x0E	; 14
    1334:	c8 f3       	brcs	.-14     	; 0x1328 <atoi+0x8>
    1336:	2b 32       	cpi	r18, 0x2B	; 43
    1338:	41 f0       	breq	.+16     	; 0x134a <atoi+0x2a>
    133a:	2d 32       	cpi	r18, 0x2D	; 45
    133c:	39 f4       	brne	.+14     	; 0x134c <atoi+0x2c>
    133e:	68 94       	set
    1340:	04 c0       	rjmp	.+8      	; 0x134a <atoi+0x2a>
    1342:	0e 94 cb 09 	call	0x1396	; 0x1396 <__mulhi_const_10>
    1346:	82 0f       	add	r24, r18
    1348:	91 1d       	adc	r25, r1
    134a:	21 91       	ld	r18, Z+
    134c:	20 53       	subi	r18, 0x30	; 48
    134e:	2a 30       	cpi	r18, 0x0A	; 10
    1350:	c0 f3       	brcs	.-16     	; 0x1342 <atoi+0x22>
    1352:	1e f4       	brtc	.+6      	; 0x135a <atoi+0x3a>
    1354:	90 95       	com	r25
    1356:	81 95       	neg	r24
    1358:	9f 4f       	sbci	r25, 0xFF	; 255
    135a:	08 95       	ret

0000135c <strcat>:
    135c:	fb 01       	movw	r30, r22
    135e:	dc 01       	movw	r26, r24
    1360:	0d 90       	ld	r0, X+
    1362:	00 20       	and	r0, r0
    1364:	e9 f7       	brne	.-6      	; 0x1360 <strcat+0x4>
    1366:	11 97       	sbiw	r26, 0x01	; 1
    1368:	01 90       	ld	r0, Z+
    136a:	0d 92       	st	X+, r0
    136c:	00 20       	and	r0, r0
    136e:	e1 f7       	brne	.-8      	; 0x1368 <strcat+0xc>
    1370:	08 95       	ret

00001372 <strcpy>:
    1372:	fb 01       	movw	r30, r22
    1374:	dc 01       	movw	r26, r24
    1376:	01 90       	ld	r0, Z+
    1378:	0d 92       	st	X+, r0
    137a:	00 20       	and	r0, r0
    137c:	e1 f7       	brne	.-8      	; 0x1376 <strcpy+0x4>
    137e:	08 95       	ret

00001380 <__itoa_ncheck>:
    1380:	bb 27       	eor	r27, r27
    1382:	4a 30       	cpi	r20, 0x0A	; 10
    1384:	31 f4       	brne	.+12     	; 0x1392 <__itoa_ncheck+0x12>
    1386:	99 23       	and	r25, r25
    1388:	22 f4       	brpl	.+8      	; 0x1392 <__itoa_ncheck+0x12>
    138a:	bd e2       	ldi	r27, 0x2D	; 45
    138c:	90 95       	com	r25
    138e:	81 95       	neg	r24
    1390:	9f 4f       	sbci	r25, 0xFF	; 255
    1392:	0c 94 d4 09 	jmp	0x13a8	; 0x13a8 <__utoa_common>

00001396 <__mulhi_const_10>:
    1396:	7a e0       	ldi	r23, 0x0A	; 10
    1398:	97 9f       	mul	r25, r23
    139a:	90 2d       	mov	r25, r0
    139c:	87 9f       	mul	r24, r23
    139e:	80 2d       	mov	r24, r0
    13a0:	91 0d       	add	r25, r1
    13a2:	11 24       	eor	r1, r1
    13a4:	08 95       	ret

000013a6 <__utoa_ncheck>:
    13a6:	bb 27       	eor	r27, r27

000013a8 <__utoa_common>:
    13a8:	fb 01       	movw	r30, r22
    13aa:	55 27       	eor	r21, r21
    13ac:	aa 27       	eor	r26, r26
    13ae:	88 0f       	add	r24, r24
    13b0:	99 1f       	adc	r25, r25
    13b2:	aa 1f       	adc	r26, r26
    13b4:	a4 17       	cp	r26, r20
    13b6:	10 f0       	brcs	.+4      	; 0x13bc <__utoa_common+0x14>
    13b8:	a4 1b       	sub	r26, r20
    13ba:	83 95       	inc	r24
    13bc:	50 51       	subi	r21, 0x10	; 16
    13be:	b9 f7       	brne	.-18     	; 0x13ae <__utoa_common+0x6>
    13c0:	a0 5d       	subi	r26, 0xD0	; 208
    13c2:	aa 33       	cpi	r26, 0x3A	; 58
    13c4:	08 f0       	brcs	.+2      	; 0x13c8 <__utoa_common+0x20>
    13c6:	a9 5d       	subi	r26, 0xD9	; 217
    13c8:	a1 93       	st	Z+, r26
    13ca:	00 97       	sbiw	r24, 0x00	; 0
    13cc:	79 f7       	brne	.-34     	; 0x13ac <__utoa_common+0x4>
    13ce:	b1 11       	cpse	r27, r1
    13d0:	b1 93       	st	Z+, r27
    13d2:	11 92       	st	Z+, r1
    13d4:	cb 01       	movw	r24, r22
    13d6:	0c 94 06 0c 	jmp	0x180c	; 0x180c <strrev>

000013da <sprintf>:
    13da:	ae e0       	ldi	r26, 0x0E	; 14
    13dc:	b0 e0       	ldi	r27, 0x00	; 0
    13de:	e3 ef       	ldi	r30, 0xF3	; 243
    13e0:	f9 e0       	ldi	r31, 0x09	; 9
    13e2:	0c 94 f9 0c 	jmp	0x19f2	; 0x19f2 <__prologue_saves__+0x1c>
    13e6:	0d 89       	ldd	r16, Y+21	; 0x15
    13e8:	1e 89       	ldd	r17, Y+22	; 0x16
    13ea:	86 e0       	ldi	r24, 0x06	; 6
    13ec:	8c 83       	std	Y+4, r24	; 0x04
    13ee:	09 83       	std	Y+1, r16	; 0x01
    13f0:	1a 83       	std	Y+2, r17	; 0x02
    13f2:	8f ef       	ldi	r24, 0xFF	; 255
    13f4:	9f e7       	ldi	r25, 0x7F	; 127
    13f6:	8d 83       	std	Y+5, r24	; 0x05
    13f8:	9e 83       	std	Y+6, r25	; 0x06
    13fa:	ae 01       	movw	r20, r28
    13fc:	47 5e       	subi	r20, 0xE7	; 231
    13fe:	5f 4f       	sbci	r21, 0xFF	; 255
    1400:	6f 89       	ldd	r22, Y+23	; 0x17
    1402:	78 8d       	ldd	r23, Y+24	; 0x18
    1404:	ce 01       	movw	r24, r28
    1406:	01 96       	adiw	r24, 0x01	; 1
    1408:	0e 94 0f 0a 	call	0x141e	; 0x141e <vfprintf>
    140c:	ef 81       	ldd	r30, Y+7	; 0x07
    140e:	f8 85       	ldd	r31, Y+8	; 0x08
    1410:	e0 0f       	add	r30, r16
    1412:	f1 1f       	adc	r31, r17
    1414:	10 82       	st	Z, r1
    1416:	2e 96       	adiw	r28, 0x0e	; 14
    1418:	e4 e0       	ldi	r30, 0x04	; 4
    141a:	0c 94 12 0d 	jmp	0x1a24	; 0x1a24 <__epilogue_restores__+0x1c>

0000141e <vfprintf>:
    141e:	ab e0       	ldi	r26, 0x0B	; 11
    1420:	b0 e0       	ldi	r27, 0x00	; 0
    1422:	e5 e1       	ldi	r30, 0x15	; 21
    1424:	fa e0       	ldi	r31, 0x0A	; 10
    1426:	0c 94 eb 0c 	jmp	0x19d6	; 0x19d6 <__prologue_saves__>
    142a:	6c 01       	movw	r12, r24
    142c:	7b 01       	movw	r14, r22
    142e:	8a 01       	movw	r16, r20
    1430:	fc 01       	movw	r30, r24
    1432:	16 82       	std	Z+6, r1	; 0x06
    1434:	17 82       	std	Z+7, r1	; 0x07
    1436:	83 81       	ldd	r24, Z+3	; 0x03
    1438:	81 ff       	sbrs	r24, 1
    143a:	cc c1       	rjmp	.+920    	; 0x17d4 <vfprintf+0x3b6>
    143c:	ce 01       	movw	r24, r28
    143e:	01 96       	adiw	r24, 0x01	; 1
    1440:	3c 01       	movw	r6, r24
    1442:	f6 01       	movw	r30, r12
    1444:	93 81       	ldd	r25, Z+3	; 0x03
    1446:	f7 01       	movw	r30, r14
    1448:	93 fd       	sbrc	r25, 3
    144a:	85 91       	lpm	r24, Z+
    144c:	93 ff       	sbrs	r25, 3
    144e:	81 91       	ld	r24, Z+
    1450:	7f 01       	movw	r14, r30
    1452:	88 23       	and	r24, r24
    1454:	09 f4       	brne	.+2      	; 0x1458 <vfprintf+0x3a>
    1456:	ba c1       	rjmp	.+884    	; 0x17cc <vfprintf+0x3ae>
    1458:	85 32       	cpi	r24, 0x25	; 37
    145a:	39 f4       	brne	.+14     	; 0x146a <vfprintf+0x4c>
    145c:	93 fd       	sbrc	r25, 3
    145e:	85 91       	lpm	r24, Z+
    1460:	93 ff       	sbrs	r25, 3
    1462:	81 91       	ld	r24, Z+
    1464:	7f 01       	movw	r14, r30
    1466:	85 32       	cpi	r24, 0x25	; 37
    1468:	29 f4       	brne	.+10     	; 0x1474 <vfprintf+0x56>
    146a:	b6 01       	movw	r22, r12
    146c:	90 e0       	ldi	r25, 0x00	; 0
    146e:	0e 94 16 0c 	call	0x182c	; 0x182c <fputc>
    1472:	e7 cf       	rjmp	.-50     	; 0x1442 <vfprintf+0x24>
    1474:	91 2c       	mov	r9, r1
    1476:	21 2c       	mov	r2, r1
    1478:	31 2c       	mov	r3, r1
    147a:	ff e1       	ldi	r31, 0x1F	; 31
    147c:	f3 15       	cp	r31, r3
    147e:	d8 f0       	brcs	.+54     	; 0x14b6 <vfprintf+0x98>
    1480:	8b 32       	cpi	r24, 0x2B	; 43
    1482:	79 f0       	breq	.+30     	; 0x14a2 <vfprintf+0x84>
    1484:	38 f4       	brcc	.+14     	; 0x1494 <vfprintf+0x76>
    1486:	80 32       	cpi	r24, 0x20	; 32
    1488:	79 f0       	breq	.+30     	; 0x14a8 <vfprintf+0x8a>
    148a:	83 32       	cpi	r24, 0x23	; 35
    148c:	a1 f4       	brne	.+40     	; 0x14b6 <vfprintf+0x98>
    148e:	23 2d       	mov	r18, r3
    1490:	20 61       	ori	r18, 0x10	; 16
    1492:	1d c0       	rjmp	.+58     	; 0x14ce <vfprintf+0xb0>
    1494:	8d 32       	cpi	r24, 0x2D	; 45
    1496:	61 f0       	breq	.+24     	; 0x14b0 <vfprintf+0x92>
    1498:	80 33       	cpi	r24, 0x30	; 48
    149a:	69 f4       	brne	.+26     	; 0x14b6 <vfprintf+0x98>
    149c:	23 2d       	mov	r18, r3
    149e:	21 60       	ori	r18, 0x01	; 1
    14a0:	16 c0       	rjmp	.+44     	; 0x14ce <vfprintf+0xb0>
    14a2:	83 2d       	mov	r24, r3
    14a4:	82 60       	ori	r24, 0x02	; 2
    14a6:	38 2e       	mov	r3, r24
    14a8:	e3 2d       	mov	r30, r3
    14aa:	e4 60       	ori	r30, 0x04	; 4
    14ac:	3e 2e       	mov	r3, r30
    14ae:	2a c0       	rjmp	.+84     	; 0x1504 <vfprintf+0xe6>
    14b0:	f3 2d       	mov	r31, r3
    14b2:	f8 60       	ori	r31, 0x08	; 8
    14b4:	1d c0       	rjmp	.+58     	; 0x14f0 <vfprintf+0xd2>
    14b6:	37 fc       	sbrc	r3, 7
    14b8:	2d c0       	rjmp	.+90     	; 0x1514 <vfprintf+0xf6>
    14ba:	20 ed       	ldi	r18, 0xD0	; 208
    14bc:	28 0f       	add	r18, r24
    14be:	2a 30       	cpi	r18, 0x0A	; 10
    14c0:	40 f0       	brcs	.+16     	; 0x14d2 <vfprintf+0xb4>
    14c2:	8e 32       	cpi	r24, 0x2E	; 46
    14c4:	b9 f4       	brne	.+46     	; 0x14f4 <vfprintf+0xd6>
    14c6:	36 fc       	sbrc	r3, 6
    14c8:	81 c1       	rjmp	.+770    	; 0x17cc <vfprintf+0x3ae>
    14ca:	23 2d       	mov	r18, r3
    14cc:	20 64       	ori	r18, 0x40	; 64
    14ce:	32 2e       	mov	r3, r18
    14d0:	19 c0       	rjmp	.+50     	; 0x1504 <vfprintf+0xe6>
    14d2:	36 fe       	sbrs	r3, 6
    14d4:	06 c0       	rjmp	.+12     	; 0x14e2 <vfprintf+0xc4>
    14d6:	8a e0       	ldi	r24, 0x0A	; 10
    14d8:	98 9e       	mul	r9, r24
    14da:	20 0d       	add	r18, r0
    14dc:	11 24       	eor	r1, r1
    14de:	92 2e       	mov	r9, r18
    14e0:	11 c0       	rjmp	.+34     	; 0x1504 <vfprintf+0xe6>
    14e2:	ea e0       	ldi	r30, 0x0A	; 10
    14e4:	2e 9e       	mul	r2, r30
    14e6:	20 0d       	add	r18, r0
    14e8:	11 24       	eor	r1, r1
    14ea:	22 2e       	mov	r2, r18
    14ec:	f3 2d       	mov	r31, r3
    14ee:	f0 62       	ori	r31, 0x20	; 32
    14f0:	3f 2e       	mov	r3, r31
    14f2:	08 c0       	rjmp	.+16     	; 0x1504 <vfprintf+0xe6>
    14f4:	8c 36       	cpi	r24, 0x6C	; 108
    14f6:	21 f4       	brne	.+8      	; 0x1500 <vfprintf+0xe2>
    14f8:	83 2d       	mov	r24, r3
    14fa:	80 68       	ori	r24, 0x80	; 128
    14fc:	38 2e       	mov	r3, r24
    14fe:	02 c0       	rjmp	.+4      	; 0x1504 <vfprintf+0xe6>
    1500:	88 36       	cpi	r24, 0x68	; 104
    1502:	41 f4       	brne	.+16     	; 0x1514 <vfprintf+0xf6>
    1504:	f7 01       	movw	r30, r14
    1506:	93 fd       	sbrc	r25, 3
    1508:	85 91       	lpm	r24, Z+
    150a:	93 ff       	sbrs	r25, 3
    150c:	81 91       	ld	r24, Z+
    150e:	7f 01       	movw	r14, r30
    1510:	81 11       	cpse	r24, r1
    1512:	b3 cf       	rjmp	.-154    	; 0x147a <vfprintf+0x5c>
    1514:	98 2f       	mov	r25, r24
    1516:	9f 7d       	andi	r25, 0xDF	; 223
    1518:	95 54       	subi	r25, 0x45	; 69
    151a:	93 30       	cpi	r25, 0x03	; 3
    151c:	28 f4       	brcc	.+10     	; 0x1528 <vfprintf+0x10a>
    151e:	0c 5f       	subi	r16, 0xFC	; 252
    1520:	1f 4f       	sbci	r17, 0xFF	; 255
    1522:	9f e3       	ldi	r25, 0x3F	; 63
    1524:	99 83       	std	Y+1, r25	; 0x01
    1526:	0d c0       	rjmp	.+26     	; 0x1542 <vfprintf+0x124>
    1528:	83 36       	cpi	r24, 0x63	; 99
    152a:	31 f0       	breq	.+12     	; 0x1538 <vfprintf+0x11a>
    152c:	83 37       	cpi	r24, 0x73	; 115
    152e:	71 f0       	breq	.+28     	; 0x154c <vfprintf+0x12e>
    1530:	83 35       	cpi	r24, 0x53	; 83
    1532:	09 f0       	breq	.+2      	; 0x1536 <vfprintf+0x118>
    1534:	59 c0       	rjmp	.+178    	; 0x15e8 <vfprintf+0x1ca>
    1536:	21 c0       	rjmp	.+66     	; 0x157a <vfprintf+0x15c>
    1538:	f8 01       	movw	r30, r16
    153a:	80 81       	ld	r24, Z
    153c:	89 83       	std	Y+1, r24	; 0x01
    153e:	0e 5f       	subi	r16, 0xFE	; 254
    1540:	1f 4f       	sbci	r17, 0xFF	; 255
    1542:	88 24       	eor	r8, r8
    1544:	83 94       	inc	r8
    1546:	91 2c       	mov	r9, r1
    1548:	53 01       	movw	r10, r6
    154a:	13 c0       	rjmp	.+38     	; 0x1572 <vfprintf+0x154>
    154c:	28 01       	movw	r4, r16
    154e:	f2 e0       	ldi	r31, 0x02	; 2
    1550:	4f 0e       	add	r4, r31
    1552:	51 1c       	adc	r5, r1
    1554:	f8 01       	movw	r30, r16
    1556:	a0 80       	ld	r10, Z
    1558:	b1 80       	ldd	r11, Z+1	; 0x01
    155a:	36 fe       	sbrs	r3, 6
    155c:	03 c0       	rjmp	.+6      	; 0x1564 <vfprintf+0x146>
    155e:	69 2d       	mov	r22, r9
    1560:	70 e0       	ldi	r23, 0x00	; 0
    1562:	02 c0       	rjmp	.+4      	; 0x1568 <vfprintf+0x14a>
    1564:	6f ef       	ldi	r22, 0xFF	; 255
    1566:	7f ef       	ldi	r23, 0xFF	; 255
    1568:	c5 01       	movw	r24, r10
    156a:	0e 94 fb 0b 	call	0x17f6	; 0x17f6 <strnlen>
    156e:	4c 01       	movw	r8, r24
    1570:	82 01       	movw	r16, r4
    1572:	f3 2d       	mov	r31, r3
    1574:	ff 77       	andi	r31, 0x7F	; 127
    1576:	3f 2e       	mov	r3, r31
    1578:	16 c0       	rjmp	.+44     	; 0x15a6 <vfprintf+0x188>
    157a:	28 01       	movw	r4, r16
    157c:	22 e0       	ldi	r18, 0x02	; 2
    157e:	42 0e       	add	r4, r18
    1580:	51 1c       	adc	r5, r1
    1582:	f8 01       	movw	r30, r16
    1584:	a0 80       	ld	r10, Z
    1586:	b1 80       	ldd	r11, Z+1	; 0x01
    1588:	36 fe       	sbrs	r3, 6
    158a:	03 c0       	rjmp	.+6      	; 0x1592 <vfprintf+0x174>
    158c:	69 2d       	mov	r22, r9
    158e:	70 e0       	ldi	r23, 0x00	; 0
    1590:	02 c0       	rjmp	.+4      	; 0x1596 <vfprintf+0x178>
    1592:	6f ef       	ldi	r22, 0xFF	; 255
    1594:	7f ef       	ldi	r23, 0xFF	; 255
    1596:	c5 01       	movw	r24, r10
    1598:	0e 94 f0 0b 	call	0x17e0	; 0x17e0 <strnlen_P>
    159c:	4c 01       	movw	r8, r24
    159e:	f3 2d       	mov	r31, r3
    15a0:	f0 68       	ori	r31, 0x80	; 128
    15a2:	3f 2e       	mov	r3, r31
    15a4:	82 01       	movw	r16, r4
    15a6:	33 fc       	sbrc	r3, 3
    15a8:	1b c0       	rjmp	.+54     	; 0x15e0 <vfprintf+0x1c2>
    15aa:	82 2d       	mov	r24, r2
    15ac:	90 e0       	ldi	r25, 0x00	; 0
    15ae:	88 16       	cp	r8, r24
    15b0:	99 06       	cpc	r9, r25
    15b2:	b0 f4       	brcc	.+44     	; 0x15e0 <vfprintf+0x1c2>
    15b4:	b6 01       	movw	r22, r12
    15b6:	80 e2       	ldi	r24, 0x20	; 32
    15b8:	90 e0       	ldi	r25, 0x00	; 0
    15ba:	0e 94 16 0c 	call	0x182c	; 0x182c <fputc>
    15be:	2a 94       	dec	r2
    15c0:	f4 cf       	rjmp	.-24     	; 0x15aa <vfprintf+0x18c>
    15c2:	f5 01       	movw	r30, r10
    15c4:	37 fc       	sbrc	r3, 7
    15c6:	85 91       	lpm	r24, Z+
    15c8:	37 fe       	sbrs	r3, 7
    15ca:	81 91       	ld	r24, Z+
    15cc:	5f 01       	movw	r10, r30
    15ce:	b6 01       	movw	r22, r12
    15d0:	90 e0       	ldi	r25, 0x00	; 0
    15d2:	0e 94 16 0c 	call	0x182c	; 0x182c <fputc>
    15d6:	21 10       	cpse	r2, r1
    15d8:	2a 94       	dec	r2
    15da:	21 e0       	ldi	r18, 0x01	; 1
    15dc:	82 1a       	sub	r8, r18
    15de:	91 08       	sbc	r9, r1
    15e0:	81 14       	cp	r8, r1
    15e2:	91 04       	cpc	r9, r1
    15e4:	71 f7       	brne	.-36     	; 0x15c2 <vfprintf+0x1a4>
    15e6:	e8 c0       	rjmp	.+464    	; 0x17b8 <vfprintf+0x39a>
    15e8:	84 36       	cpi	r24, 0x64	; 100
    15ea:	11 f0       	breq	.+4      	; 0x15f0 <vfprintf+0x1d2>
    15ec:	89 36       	cpi	r24, 0x69	; 105
    15ee:	41 f5       	brne	.+80     	; 0x1640 <vfprintf+0x222>
    15f0:	f8 01       	movw	r30, r16
    15f2:	37 fe       	sbrs	r3, 7
    15f4:	07 c0       	rjmp	.+14     	; 0x1604 <vfprintf+0x1e6>
    15f6:	60 81       	ld	r22, Z
    15f8:	71 81       	ldd	r23, Z+1	; 0x01
    15fa:	82 81       	ldd	r24, Z+2	; 0x02
    15fc:	93 81       	ldd	r25, Z+3	; 0x03
    15fe:	0c 5f       	subi	r16, 0xFC	; 252
    1600:	1f 4f       	sbci	r17, 0xFF	; 255
    1602:	08 c0       	rjmp	.+16     	; 0x1614 <vfprintf+0x1f6>
    1604:	60 81       	ld	r22, Z
    1606:	71 81       	ldd	r23, Z+1	; 0x01
    1608:	07 2e       	mov	r0, r23
    160a:	00 0c       	add	r0, r0
    160c:	88 0b       	sbc	r24, r24
    160e:	99 0b       	sbc	r25, r25
    1610:	0e 5f       	subi	r16, 0xFE	; 254
    1612:	1f 4f       	sbci	r17, 0xFF	; 255
    1614:	f3 2d       	mov	r31, r3
    1616:	ff 76       	andi	r31, 0x6F	; 111
    1618:	3f 2e       	mov	r3, r31
    161a:	97 ff       	sbrs	r25, 7
    161c:	09 c0       	rjmp	.+18     	; 0x1630 <vfprintf+0x212>
    161e:	90 95       	com	r25
    1620:	80 95       	com	r24
    1622:	70 95       	com	r23
    1624:	61 95       	neg	r22
    1626:	7f 4f       	sbci	r23, 0xFF	; 255
    1628:	8f 4f       	sbci	r24, 0xFF	; 255
    162a:	9f 4f       	sbci	r25, 0xFF	; 255
    162c:	f0 68       	ori	r31, 0x80	; 128
    162e:	3f 2e       	mov	r3, r31
    1630:	2a e0       	ldi	r18, 0x0A	; 10
    1632:	30 e0       	ldi	r19, 0x00	; 0
    1634:	a3 01       	movw	r20, r6
    1636:	0e 94 52 0c 	call	0x18a4	; 0x18a4 <__ultoa_invert>
    163a:	88 2e       	mov	r8, r24
    163c:	86 18       	sub	r8, r6
    163e:	45 c0       	rjmp	.+138    	; 0x16ca <vfprintf+0x2ac>
    1640:	85 37       	cpi	r24, 0x75	; 117
    1642:	31 f4       	brne	.+12     	; 0x1650 <vfprintf+0x232>
    1644:	23 2d       	mov	r18, r3
    1646:	2f 7e       	andi	r18, 0xEF	; 239
    1648:	b2 2e       	mov	r11, r18
    164a:	2a e0       	ldi	r18, 0x0A	; 10
    164c:	30 e0       	ldi	r19, 0x00	; 0
    164e:	25 c0       	rjmp	.+74     	; 0x169a <vfprintf+0x27c>
    1650:	93 2d       	mov	r25, r3
    1652:	99 7f       	andi	r25, 0xF9	; 249
    1654:	b9 2e       	mov	r11, r25
    1656:	8f 36       	cpi	r24, 0x6F	; 111
    1658:	c1 f0       	breq	.+48     	; 0x168a <vfprintf+0x26c>
    165a:	18 f4       	brcc	.+6      	; 0x1662 <vfprintf+0x244>
    165c:	88 35       	cpi	r24, 0x58	; 88
    165e:	79 f0       	breq	.+30     	; 0x167e <vfprintf+0x260>
    1660:	b5 c0       	rjmp	.+362    	; 0x17cc <vfprintf+0x3ae>
    1662:	80 37       	cpi	r24, 0x70	; 112
    1664:	19 f0       	breq	.+6      	; 0x166c <vfprintf+0x24e>
    1666:	88 37       	cpi	r24, 0x78	; 120
    1668:	21 f0       	breq	.+8      	; 0x1672 <vfprintf+0x254>
    166a:	b0 c0       	rjmp	.+352    	; 0x17cc <vfprintf+0x3ae>
    166c:	e9 2f       	mov	r30, r25
    166e:	e0 61       	ori	r30, 0x10	; 16
    1670:	be 2e       	mov	r11, r30
    1672:	b4 fe       	sbrs	r11, 4
    1674:	0d c0       	rjmp	.+26     	; 0x1690 <vfprintf+0x272>
    1676:	fb 2d       	mov	r31, r11
    1678:	f4 60       	ori	r31, 0x04	; 4
    167a:	bf 2e       	mov	r11, r31
    167c:	09 c0       	rjmp	.+18     	; 0x1690 <vfprintf+0x272>
    167e:	34 fe       	sbrs	r3, 4
    1680:	0a c0       	rjmp	.+20     	; 0x1696 <vfprintf+0x278>
    1682:	29 2f       	mov	r18, r25
    1684:	26 60       	ori	r18, 0x06	; 6
    1686:	b2 2e       	mov	r11, r18
    1688:	06 c0       	rjmp	.+12     	; 0x1696 <vfprintf+0x278>
    168a:	28 e0       	ldi	r18, 0x08	; 8
    168c:	30 e0       	ldi	r19, 0x00	; 0
    168e:	05 c0       	rjmp	.+10     	; 0x169a <vfprintf+0x27c>
    1690:	20 e1       	ldi	r18, 0x10	; 16
    1692:	30 e0       	ldi	r19, 0x00	; 0
    1694:	02 c0       	rjmp	.+4      	; 0x169a <vfprintf+0x27c>
    1696:	20 e1       	ldi	r18, 0x10	; 16
    1698:	32 e0       	ldi	r19, 0x02	; 2
    169a:	f8 01       	movw	r30, r16
    169c:	b7 fe       	sbrs	r11, 7
    169e:	07 c0       	rjmp	.+14     	; 0x16ae <vfprintf+0x290>
    16a0:	60 81       	ld	r22, Z
    16a2:	71 81       	ldd	r23, Z+1	; 0x01
    16a4:	82 81       	ldd	r24, Z+2	; 0x02
    16a6:	93 81       	ldd	r25, Z+3	; 0x03
    16a8:	0c 5f       	subi	r16, 0xFC	; 252
    16aa:	1f 4f       	sbci	r17, 0xFF	; 255
    16ac:	06 c0       	rjmp	.+12     	; 0x16ba <vfprintf+0x29c>
    16ae:	60 81       	ld	r22, Z
    16b0:	71 81       	ldd	r23, Z+1	; 0x01
    16b2:	80 e0       	ldi	r24, 0x00	; 0
    16b4:	90 e0       	ldi	r25, 0x00	; 0
    16b6:	0e 5f       	subi	r16, 0xFE	; 254
    16b8:	1f 4f       	sbci	r17, 0xFF	; 255
    16ba:	a3 01       	movw	r20, r6
    16bc:	0e 94 52 0c 	call	0x18a4	; 0x18a4 <__ultoa_invert>
    16c0:	88 2e       	mov	r8, r24
    16c2:	86 18       	sub	r8, r6
    16c4:	fb 2d       	mov	r31, r11
    16c6:	ff 77       	andi	r31, 0x7F	; 127
    16c8:	3f 2e       	mov	r3, r31
    16ca:	36 fe       	sbrs	r3, 6
    16cc:	0d c0       	rjmp	.+26     	; 0x16e8 <vfprintf+0x2ca>
    16ce:	23 2d       	mov	r18, r3
    16d0:	2e 7f       	andi	r18, 0xFE	; 254
    16d2:	a2 2e       	mov	r10, r18
    16d4:	89 14       	cp	r8, r9
    16d6:	58 f4       	brcc	.+22     	; 0x16ee <vfprintf+0x2d0>
    16d8:	34 fe       	sbrs	r3, 4
    16da:	0b c0       	rjmp	.+22     	; 0x16f2 <vfprintf+0x2d4>
    16dc:	32 fc       	sbrc	r3, 2
    16de:	09 c0       	rjmp	.+18     	; 0x16f2 <vfprintf+0x2d4>
    16e0:	83 2d       	mov	r24, r3
    16e2:	8e 7e       	andi	r24, 0xEE	; 238
    16e4:	a8 2e       	mov	r10, r24
    16e6:	05 c0       	rjmp	.+10     	; 0x16f2 <vfprintf+0x2d4>
    16e8:	b8 2c       	mov	r11, r8
    16ea:	a3 2c       	mov	r10, r3
    16ec:	03 c0       	rjmp	.+6      	; 0x16f4 <vfprintf+0x2d6>
    16ee:	b8 2c       	mov	r11, r8
    16f0:	01 c0       	rjmp	.+2      	; 0x16f4 <vfprintf+0x2d6>
    16f2:	b9 2c       	mov	r11, r9
    16f4:	a4 fe       	sbrs	r10, 4
    16f6:	0f c0       	rjmp	.+30     	; 0x1716 <vfprintf+0x2f8>
    16f8:	fe 01       	movw	r30, r28
    16fa:	e8 0d       	add	r30, r8
    16fc:	f1 1d       	adc	r31, r1
    16fe:	80 81       	ld	r24, Z
    1700:	80 33       	cpi	r24, 0x30	; 48
    1702:	21 f4       	brne	.+8      	; 0x170c <vfprintf+0x2ee>
    1704:	9a 2d       	mov	r25, r10
    1706:	99 7e       	andi	r25, 0xE9	; 233
    1708:	a9 2e       	mov	r10, r25
    170a:	09 c0       	rjmp	.+18     	; 0x171e <vfprintf+0x300>
    170c:	a2 fe       	sbrs	r10, 2
    170e:	06 c0       	rjmp	.+12     	; 0x171c <vfprintf+0x2fe>
    1710:	b3 94       	inc	r11
    1712:	b3 94       	inc	r11
    1714:	04 c0       	rjmp	.+8      	; 0x171e <vfprintf+0x300>
    1716:	8a 2d       	mov	r24, r10
    1718:	86 78       	andi	r24, 0x86	; 134
    171a:	09 f0       	breq	.+2      	; 0x171e <vfprintf+0x300>
    171c:	b3 94       	inc	r11
    171e:	a3 fc       	sbrc	r10, 3
    1720:	11 c0       	rjmp	.+34     	; 0x1744 <vfprintf+0x326>
    1722:	a0 fe       	sbrs	r10, 0
    1724:	06 c0       	rjmp	.+12     	; 0x1732 <vfprintf+0x314>
    1726:	b2 14       	cp	r11, r2
    1728:	88 f4       	brcc	.+34     	; 0x174c <vfprintf+0x32e>
    172a:	28 0c       	add	r2, r8
    172c:	92 2c       	mov	r9, r2
    172e:	9b 18       	sub	r9, r11
    1730:	0e c0       	rjmp	.+28     	; 0x174e <vfprintf+0x330>
    1732:	b2 14       	cp	r11, r2
    1734:	60 f4       	brcc	.+24     	; 0x174e <vfprintf+0x330>
    1736:	b6 01       	movw	r22, r12
    1738:	80 e2       	ldi	r24, 0x20	; 32
    173a:	90 e0       	ldi	r25, 0x00	; 0
    173c:	0e 94 16 0c 	call	0x182c	; 0x182c <fputc>
    1740:	b3 94       	inc	r11
    1742:	f7 cf       	rjmp	.-18     	; 0x1732 <vfprintf+0x314>
    1744:	b2 14       	cp	r11, r2
    1746:	18 f4       	brcc	.+6      	; 0x174e <vfprintf+0x330>
    1748:	2b 18       	sub	r2, r11
    174a:	02 c0       	rjmp	.+4      	; 0x1750 <vfprintf+0x332>
    174c:	98 2c       	mov	r9, r8
    174e:	21 2c       	mov	r2, r1
    1750:	a4 fe       	sbrs	r10, 4
    1752:	10 c0       	rjmp	.+32     	; 0x1774 <vfprintf+0x356>
    1754:	b6 01       	movw	r22, r12
    1756:	80 e3       	ldi	r24, 0x30	; 48
    1758:	90 e0       	ldi	r25, 0x00	; 0
    175a:	0e 94 16 0c 	call	0x182c	; 0x182c <fputc>
    175e:	a2 fe       	sbrs	r10, 2
    1760:	17 c0       	rjmp	.+46     	; 0x1790 <vfprintf+0x372>
    1762:	a1 fc       	sbrc	r10, 1
    1764:	03 c0       	rjmp	.+6      	; 0x176c <vfprintf+0x34e>
    1766:	88 e7       	ldi	r24, 0x78	; 120
    1768:	90 e0       	ldi	r25, 0x00	; 0
    176a:	02 c0       	rjmp	.+4      	; 0x1770 <vfprintf+0x352>
    176c:	88 e5       	ldi	r24, 0x58	; 88
    176e:	90 e0       	ldi	r25, 0x00	; 0
    1770:	b6 01       	movw	r22, r12
    1772:	0c c0       	rjmp	.+24     	; 0x178c <vfprintf+0x36e>
    1774:	8a 2d       	mov	r24, r10
    1776:	86 78       	andi	r24, 0x86	; 134
    1778:	59 f0       	breq	.+22     	; 0x1790 <vfprintf+0x372>
    177a:	a1 fe       	sbrs	r10, 1
    177c:	02 c0       	rjmp	.+4      	; 0x1782 <vfprintf+0x364>
    177e:	8b e2       	ldi	r24, 0x2B	; 43
    1780:	01 c0       	rjmp	.+2      	; 0x1784 <vfprintf+0x366>
    1782:	80 e2       	ldi	r24, 0x20	; 32
    1784:	a7 fc       	sbrc	r10, 7
    1786:	8d e2       	ldi	r24, 0x2D	; 45
    1788:	b6 01       	movw	r22, r12
    178a:	90 e0       	ldi	r25, 0x00	; 0
    178c:	0e 94 16 0c 	call	0x182c	; 0x182c <fputc>
    1790:	89 14       	cp	r8, r9
    1792:	38 f4       	brcc	.+14     	; 0x17a2 <vfprintf+0x384>
    1794:	b6 01       	movw	r22, r12
    1796:	80 e3       	ldi	r24, 0x30	; 48
    1798:	90 e0       	ldi	r25, 0x00	; 0
    179a:	0e 94 16 0c 	call	0x182c	; 0x182c <fputc>
    179e:	9a 94       	dec	r9
    17a0:	f7 cf       	rjmp	.-18     	; 0x1790 <vfprintf+0x372>
    17a2:	8a 94       	dec	r8
    17a4:	f3 01       	movw	r30, r6
    17a6:	e8 0d       	add	r30, r8
    17a8:	f1 1d       	adc	r31, r1
    17aa:	80 81       	ld	r24, Z
    17ac:	b6 01       	movw	r22, r12
    17ae:	90 e0       	ldi	r25, 0x00	; 0
    17b0:	0e 94 16 0c 	call	0x182c	; 0x182c <fputc>
    17b4:	81 10       	cpse	r8, r1
    17b6:	f5 cf       	rjmp	.-22     	; 0x17a2 <vfprintf+0x384>
    17b8:	22 20       	and	r2, r2
    17ba:	09 f4       	brne	.+2      	; 0x17be <vfprintf+0x3a0>
    17bc:	42 ce       	rjmp	.-892    	; 0x1442 <vfprintf+0x24>
    17be:	b6 01       	movw	r22, r12
    17c0:	80 e2       	ldi	r24, 0x20	; 32
    17c2:	90 e0       	ldi	r25, 0x00	; 0
    17c4:	0e 94 16 0c 	call	0x182c	; 0x182c <fputc>
    17c8:	2a 94       	dec	r2
    17ca:	f6 cf       	rjmp	.-20     	; 0x17b8 <vfprintf+0x39a>
    17cc:	f6 01       	movw	r30, r12
    17ce:	86 81       	ldd	r24, Z+6	; 0x06
    17d0:	97 81       	ldd	r25, Z+7	; 0x07
    17d2:	02 c0       	rjmp	.+4      	; 0x17d8 <vfprintf+0x3ba>
    17d4:	8f ef       	ldi	r24, 0xFF	; 255
    17d6:	9f ef       	ldi	r25, 0xFF	; 255
    17d8:	2b 96       	adiw	r28, 0x0b	; 11
    17da:	e2 e1       	ldi	r30, 0x12	; 18
    17dc:	0c 94 04 0d 	jmp	0x1a08	; 0x1a08 <__epilogue_restores__>

000017e0 <strnlen_P>:
    17e0:	fc 01       	movw	r30, r24
    17e2:	05 90       	lpm	r0, Z+
    17e4:	61 50       	subi	r22, 0x01	; 1
    17e6:	70 40       	sbci	r23, 0x00	; 0
    17e8:	01 10       	cpse	r0, r1
    17ea:	d8 f7       	brcc	.-10     	; 0x17e2 <strnlen_P+0x2>
    17ec:	80 95       	com	r24
    17ee:	90 95       	com	r25
    17f0:	8e 0f       	add	r24, r30
    17f2:	9f 1f       	adc	r25, r31
    17f4:	08 95       	ret

000017f6 <strnlen>:
    17f6:	fc 01       	movw	r30, r24
    17f8:	61 50       	subi	r22, 0x01	; 1
    17fa:	70 40       	sbci	r23, 0x00	; 0
    17fc:	01 90       	ld	r0, Z+
    17fe:	01 10       	cpse	r0, r1
    1800:	d8 f7       	brcc	.-10     	; 0x17f8 <strnlen+0x2>
    1802:	80 95       	com	r24
    1804:	90 95       	com	r25
    1806:	8e 0f       	add	r24, r30
    1808:	9f 1f       	adc	r25, r31
    180a:	08 95       	ret

0000180c <strrev>:
    180c:	dc 01       	movw	r26, r24
    180e:	fc 01       	movw	r30, r24
    1810:	67 2f       	mov	r22, r23
    1812:	71 91       	ld	r23, Z+
    1814:	77 23       	and	r23, r23
    1816:	e1 f7       	brne	.-8      	; 0x1810 <strrev+0x4>
    1818:	32 97       	sbiw	r30, 0x02	; 2
    181a:	04 c0       	rjmp	.+8      	; 0x1824 <strrev+0x18>
    181c:	7c 91       	ld	r23, X
    181e:	6d 93       	st	X+, r22
    1820:	70 83       	st	Z, r23
    1822:	62 91       	ld	r22, -Z
    1824:	ae 17       	cp	r26, r30
    1826:	bf 07       	cpc	r27, r31
    1828:	c8 f3       	brcs	.-14     	; 0x181c <strrev+0x10>
    182a:	08 95       	ret

0000182c <fputc>:
    182c:	0f 93       	push	r16
    182e:	1f 93       	push	r17
    1830:	cf 93       	push	r28
    1832:	df 93       	push	r29
    1834:	fb 01       	movw	r30, r22
    1836:	23 81       	ldd	r18, Z+3	; 0x03
    1838:	21 fd       	sbrc	r18, 1
    183a:	03 c0       	rjmp	.+6      	; 0x1842 <fputc+0x16>
    183c:	8f ef       	ldi	r24, 0xFF	; 255
    183e:	9f ef       	ldi	r25, 0xFF	; 255
    1840:	2c c0       	rjmp	.+88     	; 0x189a <fputc+0x6e>
    1842:	22 ff       	sbrs	r18, 2
    1844:	16 c0       	rjmp	.+44     	; 0x1872 <fputc+0x46>
    1846:	46 81       	ldd	r20, Z+6	; 0x06
    1848:	57 81       	ldd	r21, Z+7	; 0x07
    184a:	24 81       	ldd	r18, Z+4	; 0x04
    184c:	35 81       	ldd	r19, Z+5	; 0x05
    184e:	42 17       	cp	r20, r18
    1850:	53 07       	cpc	r21, r19
    1852:	44 f4       	brge	.+16     	; 0x1864 <fputc+0x38>
    1854:	a0 81       	ld	r26, Z
    1856:	b1 81       	ldd	r27, Z+1	; 0x01
    1858:	9d 01       	movw	r18, r26
    185a:	2f 5f       	subi	r18, 0xFF	; 255
    185c:	3f 4f       	sbci	r19, 0xFF	; 255
    185e:	20 83       	st	Z, r18
    1860:	31 83       	std	Z+1, r19	; 0x01
    1862:	8c 93       	st	X, r24
    1864:	26 81       	ldd	r18, Z+6	; 0x06
    1866:	37 81       	ldd	r19, Z+7	; 0x07
    1868:	2f 5f       	subi	r18, 0xFF	; 255
    186a:	3f 4f       	sbci	r19, 0xFF	; 255
    186c:	26 83       	std	Z+6, r18	; 0x06
    186e:	37 83       	std	Z+7, r19	; 0x07
    1870:	14 c0       	rjmp	.+40     	; 0x189a <fputc+0x6e>
    1872:	8b 01       	movw	r16, r22
    1874:	ec 01       	movw	r28, r24
    1876:	fb 01       	movw	r30, r22
    1878:	00 84       	ldd	r0, Z+8	; 0x08
    187a:	f1 85       	ldd	r31, Z+9	; 0x09
    187c:	e0 2d       	mov	r30, r0
    187e:	09 95       	icall
    1880:	89 2b       	or	r24, r25
    1882:	e1 f6       	brne	.-72     	; 0x183c <fputc+0x10>
    1884:	d8 01       	movw	r26, r16
    1886:	16 96       	adiw	r26, 0x06	; 6
    1888:	8d 91       	ld	r24, X+
    188a:	9c 91       	ld	r25, X
    188c:	17 97       	sbiw	r26, 0x07	; 7
    188e:	01 96       	adiw	r24, 0x01	; 1
    1890:	16 96       	adiw	r26, 0x06	; 6
    1892:	8d 93       	st	X+, r24
    1894:	9c 93       	st	X, r25
    1896:	17 97       	sbiw	r26, 0x07	; 7
    1898:	ce 01       	movw	r24, r28
    189a:	df 91       	pop	r29
    189c:	cf 91       	pop	r28
    189e:	1f 91       	pop	r17
    18a0:	0f 91       	pop	r16
    18a2:	08 95       	ret

000018a4 <__ultoa_invert>:
    18a4:	fa 01       	movw	r30, r20
    18a6:	aa 27       	eor	r26, r26
    18a8:	28 30       	cpi	r18, 0x08	; 8
    18aa:	51 f1       	breq	.+84     	; 0x1900 <__ultoa_invert+0x5c>
    18ac:	20 31       	cpi	r18, 0x10	; 16
    18ae:	81 f1       	breq	.+96     	; 0x1910 <__ultoa_invert+0x6c>
    18b0:	e8 94       	clt
    18b2:	6f 93       	push	r22
    18b4:	6e 7f       	andi	r22, 0xFE	; 254
    18b6:	6e 5f       	subi	r22, 0xFE	; 254
    18b8:	7f 4f       	sbci	r23, 0xFF	; 255
    18ba:	8f 4f       	sbci	r24, 0xFF	; 255
    18bc:	9f 4f       	sbci	r25, 0xFF	; 255
    18be:	af 4f       	sbci	r26, 0xFF	; 255
    18c0:	b1 e0       	ldi	r27, 0x01	; 1
    18c2:	3e d0       	rcall	.+124    	; 0x1940 <__ultoa_invert+0x9c>
    18c4:	b4 e0       	ldi	r27, 0x04	; 4
    18c6:	3c d0       	rcall	.+120    	; 0x1940 <__ultoa_invert+0x9c>
    18c8:	67 0f       	add	r22, r23
    18ca:	78 1f       	adc	r23, r24
    18cc:	89 1f       	adc	r24, r25
    18ce:	9a 1f       	adc	r25, r26
    18d0:	a1 1d       	adc	r26, r1
    18d2:	68 0f       	add	r22, r24
    18d4:	79 1f       	adc	r23, r25
    18d6:	8a 1f       	adc	r24, r26
    18d8:	91 1d       	adc	r25, r1
    18da:	a1 1d       	adc	r26, r1
    18dc:	6a 0f       	add	r22, r26
    18de:	71 1d       	adc	r23, r1
    18e0:	81 1d       	adc	r24, r1
    18e2:	91 1d       	adc	r25, r1
    18e4:	a1 1d       	adc	r26, r1
    18e6:	20 d0       	rcall	.+64     	; 0x1928 <__ultoa_invert+0x84>
    18e8:	09 f4       	brne	.+2      	; 0x18ec <__ultoa_invert+0x48>
    18ea:	68 94       	set
    18ec:	3f 91       	pop	r19
    18ee:	2a e0       	ldi	r18, 0x0A	; 10
    18f0:	26 9f       	mul	r18, r22
    18f2:	11 24       	eor	r1, r1
    18f4:	30 19       	sub	r19, r0
    18f6:	30 5d       	subi	r19, 0xD0	; 208
    18f8:	31 93       	st	Z+, r19
    18fa:	de f6       	brtc	.-74     	; 0x18b2 <__ultoa_invert+0xe>
    18fc:	cf 01       	movw	r24, r30
    18fe:	08 95       	ret
    1900:	46 2f       	mov	r20, r22
    1902:	47 70       	andi	r20, 0x07	; 7
    1904:	40 5d       	subi	r20, 0xD0	; 208
    1906:	41 93       	st	Z+, r20
    1908:	b3 e0       	ldi	r27, 0x03	; 3
    190a:	0f d0       	rcall	.+30     	; 0x192a <__ultoa_invert+0x86>
    190c:	c9 f7       	brne	.-14     	; 0x1900 <__ultoa_invert+0x5c>
    190e:	f6 cf       	rjmp	.-20     	; 0x18fc <__ultoa_invert+0x58>
    1910:	46 2f       	mov	r20, r22
    1912:	4f 70       	andi	r20, 0x0F	; 15
    1914:	40 5d       	subi	r20, 0xD0	; 208
    1916:	4a 33       	cpi	r20, 0x3A	; 58
    1918:	18 f0       	brcs	.+6      	; 0x1920 <__ultoa_invert+0x7c>
    191a:	49 5d       	subi	r20, 0xD9	; 217
    191c:	31 fd       	sbrc	r19, 1
    191e:	40 52       	subi	r20, 0x20	; 32
    1920:	41 93       	st	Z+, r20
    1922:	02 d0       	rcall	.+4      	; 0x1928 <__ultoa_invert+0x84>
    1924:	a9 f7       	brne	.-22     	; 0x1910 <__ultoa_invert+0x6c>
    1926:	ea cf       	rjmp	.-44     	; 0x18fc <__ultoa_invert+0x58>
    1928:	b4 e0       	ldi	r27, 0x04	; 4
    192a:	a6 95       	lsr	r26
    192c:	97 95       	ror	r25
    192e:	87 95       	ror	r24
    1930:	77 95       	ror	r23
    1932:	67 95       	ror	r22
    1934:	ba 95       	dec	r27
    1936:	c9 f7       	brne	.-14     	; 0x192a <__ultoa_invert+0x86>
    1938:	00 97       	sbiw	r24, 0x00	; 0
    193a:	61 05       	cpc	r22, r1
    193c:	71 05       	cpc	r23, r1
    193e:	08 95       	ret
    1940:	9b 01       	movw	r18, r22
    1942:	ac 01       	movw	r20, r24
    1944:	0a 2e       	mov	r0, r26
    1946:	06 94       	lsr	r0
    1948:	57 95       	ror	r21
    194a:	47 95       	ror	r20
    194c:	37 95       	ror	r19
    194e:	27 95       	ror	r18
    1950:	ba 95       	dec	r27
    1952:	c9 f7       	brne	.-14     	; 0x1946 <__ultoa_invert+0xa2>
    1954:	62 0f       	add	r22, r18
    1956:	73 1f       	adc	r23, r19
    1958:	84 1f       	adc	r24, r20
    195a:	95 1f       	adc	r25, r21
    195c:	a0 1d       	adc	r26, r0
    195e:	08 95       	ret

00001960 <eeprom_read_block>:
    1960:	60 50       	subi	r22, 0x00	; 0
    1962:	7c 4e       	sbci	r23, 0xEC	; 236
    1964:	0c 94 1c 0d 	jmp	0x1a38	; 0x1a38 <memcpy>

00001968 <eeprom_read_byte>:
    1968:	03 d0       	rcall	.+6      	; 0x1970 <eeprom_mapen>
    196a:	80 81       	ld	r24, Z
    196c:	99 27       	eor	r25, r25
    196e:	08 95       	ret

00001970 <eeprom_mapen>:
    1970:	fc 01       	movw	r30, r24
    1972:	e0 50       	subi	r30, 0x00	; 0
    1974:	fc 4e       	sbci	r31, 0xEC	; 236
    1976:	08 95       	ret

00001978 <eeprom_update_block>:
    1978:	dc 01       	movw	r26, r24
    197a:	a4 0f       	add	r26, r20
    197c:	b5 1f       	adc	r27, r21
    197e:	41 50       	subi	r20, 0x01	; 1
    1980:	50 40       	sbci	r21, 0x00	; 0
    1982:	48 f0       	brcs	.+18     	; 0x1996 <eeprom_update_block+0x1e>
    1984:	cb 01       	movw	r24, r22
    1986:	84 0f       	add	r24, r20
    1988:	95 1f       	adc	r25, r21
    198a:	2e 91       	ld	r18, -X
    198c:	0e 94 cd 0c 	call	0x199a	; 0x199a <eeprom_update_r18>
    1990:	41 50       	subi	r20, 0x01	; 1
    1992:	50 40       	sbci	r21, 0x00	; 0
    1994:	d0 f7       	brcc	.-12     	; 0x198a <eeprom_update_block+0x12>
    1996:	08 95       	ret

00001998 <eeprom_update_byte>:
    1998:	26 2f       	mov	r18, r22

0000199a <eeprom_update_r18>:
    199a:	0e 94 b8 0c 	call	0x1970	; 0x1970 <eeprom_mapen>
    199e:	00 80       	ld	r0, Z
    19a0:	02 16       	cp	r0, r18
    19a2:	19 f0       	breq	.+6      	; 0x19aa <eeprom_update_r18+0x10>
    19a4:	0e 94 d8 0c 	call	0x19b0	; 0x19b0 <eeprom_write_r18>
    19a8:	01 97       	sbiw	r24, 0x01	; 1
    19aa:	01 97       	sbiw	r24, 0x01	; 1
    19ac:	08 95       	ret

000019ae <eeprom_write_byte>:
    19ae:	26 2f       	mov	r18, r22

000019b0 <eeprom_write_r18>:
    19b0:	af 93       	push	r26
    19b2:	bf 93       	push	r27
    19b4:	e0 e0       	ldi	r30, 0x00	; 0
    19b6:	f0 e1       	ldi	r31, 0x10	; 16
    19b8:	32 81       	ldd	r19, Z+2	; 0x02
    19ba:	31 fd       	sbrc	r19, 1
    19bc:	fd cf       	rjmp	.-6      	; 0x19b8 <eeprom_write_r18+0x8>
    19be:	dc 01       	movw	r26, r24
    19c0:	a0 50       	subi	r26, 0x00	; 0
    19c2:	bc 4e       	sbci	r27, 0xEC	; 236
    19c4:	2c 93       	st	X, r18
    19c6:	2d e9       	ldi	r18, 0x9D	; 157
    19c8:	24 bf       	out	0x34, r18	; 52
    19ca:	23 e0       	ldi	r18, 0x03	; 3
    19cc:	20 83       	st	Z, r18
    19ce:	01 96       	adiw	r24, 0x01	; 1
    19d0:	bf 91       	pop	r27
    19d2:	af 91       	pop	r26
    19d4:	08 95       	ret

000019d6 <__prologue_saves__>:
    19d6:	2f 92       	push	r2
    19d8:	3f 92       	push	r3
    19da:	4f 92       	push	r4
    19dc:	5f 92       	push	r5
    19de:	6f 92       	push	r6
    19e0:	7f 92       	push	r7
    19e2:	8f 92       	push	r8
    19e4:	9f 92       	push	r9
    19e6:	af 92       	push	r10
    19e8:	bf 92       	push	r11
    19ea:	cf 92       	push	r12
    19ec:	df 92       	push	r13
    19ee:	ef 92       	push	r14
    19f0:	ff 92       	push	r15
    19f2:	0f 93       	push	r16
    19f4:	1f 93       	push	r17
    19f6:	cf 93       	push	r28
    19f8:	df 93       	push	r29
    19fa:	cd b7       	in	r28, 0x3d	; 61
    19fc:	de b7       	in	r29, 0x3e	; 62
    19fe:	ca 1b       	sub	r28, r26
    1a00:	db 0b       	sbc	r29, r27
    1a02:	cd bf       	out	0x3d, r28	; 61
    1a04:	de bf       	out	0x3e, r29	; 62
    1a06:	09 94       	ijmp

00001a08 <__epilogue_restores__>:
    1a08:	2a 88       	ldd	r2, Y+18	; 0x12
    1a0a:	39 88       	ldd	r3, Y+17	; 0x11
    1a0c:	48 88       	ldd	r4, Y+16	; 0x10
    1a0e:	5f 84       	ldd	r5, Y+15	; 0x0f
    1a10:	6e 84       	ldd	r6, Y+14	; 0x0e
    1a12:	7d 84       	ldd	r7, Y+13	; 0x0d
    1a14:	8c 84       	ldd	r8, Y+12	; 0x0c
    1a16:	9b 84       	ldd	r9, Y+11	; 0x0b
    1a18:	aa 84       	ldd	r10, Y+10	; 0x0a
    1a1a:	b9 84       	ldd	r11, Y+9	; 0x09
    1a1c:	c8 84       	ldd	r12, Y+8	; 0x08
    1a1e:	df 80       	ldd	r13, Y+7	; 0x07
    1a20:	ee 80       	ldd	r14, Y+6	; 0x06
    1a22:	fd 80       	ldd	r15, Y+5	; 0x05
    1a24:	0c 81       	ldd	r16, Y+4	; 0x04
    1a26:	1b 81       	ldd	r17, Y+3	; 0x03
    1a28:	aa 81       	ldd	r26, Y+2	; 0x02
    1a2a:	b9 81       	ldd	r27, Y+1	; 0x01
    1a2c:	ce 0f       	add	r28, r30
    1a2e:	d1 1d       	adc	r29, r1
    1a30:	cd bf       	out	0x3d, r28	; 61
    1a32:	de bf       	out	0x3e, r29	; 62
    1a34:	ed 01       	movw	r28, r26
    1a36:	08 95       	ret

00001a38 <memcpy>:
    1a38:	fb 01       	movw	r30, r22
    1a3a:	dc 01       	movw	r26, r24
    1a3c:	02 c0       	rjmp	.+4      	; 0x1a42 <memcpy+0xa>
    1a3e:	01 90       	ld	r0, Z+
    1a40:	0d 92       	st	X+, r0
    1a42:	41 50       	subi	r20, 0x01	; 1
    1a44:	50 40       	sbci	r21, 0x00	; 0
    1a46:	d8 f7       	brcc	.-10     	; 0x1a3e <memcpy+0x6>
    1a48:	08 95       	ret

00001a4a <_exit>:
    1a4a:	f8 94       	cli

00001a4c <__stop_program>:
    1a4c:	ff cf       	rjmp	.-2      	; 0x1a4c <__stop_program>
